ARM GAS  C:\Users\Kevin\AppData\Local\Temp\ccJ9qp0a.s 			page 1


   1              		.cpu cortex-m0
   2              		.fpu softvfp
   3              		.eabi_attribute 20, 1
   4              		.eabi_attribute 21, 1
   5              		.eabi_attribute 23, 3
   6              		.eabi_attribute 24, 1
   7              		.eabi_attribute 25, 1
   8              		.eabi_attribute 26, 1
   9              		.eabi_attribute 30, 6
  10              		.eabi_attribute 34, 0
  11              		.eabi_attribute 18, 4
  12              		.code	16
  13              		.file	"BLE_eventHandler.c"
  14              		.text
  15              	.Ltext0:
  16              		.cfi_sections	.debug_frame
  17              		.comm	cyBle_connHandle,2,4
  18              		.comm	cyBle_eventHandlerFlag,1,1
  19              		.comm	cyBle_busyStatus,1,1
  20              		.comm	cyBle_advertisingIntervalType,1,1
  21              		.global	cyBle_authInfo
  22              		.data
  23              		.align	2
  24              		.type	cyBle_authInfo, %object
  25              		.size	cyBle_authInfo, 4
  26              	cyBle_authInfo:
  27 0000 10       		.byte	16
  28 0001 00       		.byte	0
  29 0002 10       		.byte	16
  30 0003 00       		.byte	0
  31              		.section	.text.CyBle_WriteReqHandler,"ax",%progbits
  32              		.align	2
  33              		.code	16
  34              		.thumb_func
  35              		.type	CyBle_WriteReqHandler, %function
  36              	CyBle_WriteReqHandler:
  37              	.LFB2:
  38              		.file 1 ".\\Generated_Source\\PSoC4\\BLE_eventHandler.c"
   1:.\Generated_Source\PSoC4/BLE_eventHandler.c **** /***************************************************************************//**
   2:.\Generated_Source\PSoC4/BLE_eventHandler.c **** * \file CYBLE_eventHandler.c
   3:.\Generated_Source\PSoC4/BLE_eventHandler.c **** * \version 2.20
   4:.\Generated_Source\PSoC4/BLE_eventHandler.c **** * 
   5:.\Generated_Source\PSoC4/BLE_eventHandler.c **** * \brief
   6:.\Generated_Source\PSoC4/BLE_eventHandler.c **** *  This file contains the source code for the Event Handler State Machine
   7:.\Generated_Source\PSoC4/BLE_eventHandler.c **** *  of the BLE Component.
   8:.\Generated_Source\PSoC4/BLE_eventHandler.c **** * 
   9:.\Generated_Source\PSoC4/BLE_eventHandler.c **** ********************************************************************************
  10:.\Generated_Source\PSoC4/BLE_eventHandler.c **** * \copyright
  11:.\Generated_Source\PSoC4/BLE_eventHandler.c **** * Copyright 2014-2015, Cypress Semiconductor Corporation.  All rights reserved.
  12:.\Generated_Source\PSoC4/BLE_eventHandler.c **** * You may use this file only in accordance with the license, terms, conditions,
  13:.\Generated_Source\PSoC4/BLE_eventHandler.c **** * disclaimers, and limitations in the end user license agreement accompanying
  14:.\Generated_Source\PSoC4/BLE_eventHandler.c **** * the software package with which this file was provided.
  15:.\Generated_Source\PSoC4/BLE_eventHandler.c **** *******************************************************************************/
  16:.\Generated_Source\PSoC4/BLE_eventHandler.c **** 
  17:.\Generated_Source\PSoC4/BLE_eventHandler.c **** #include "BLE_eventHandler.h"
  18:.\Generated_Source\PSoC4/BLE_eventHandler.c **** 
  19:.\Generated_Source\PSoC4/BLE_eventHandler.c **** 
ARM GAS  C:\Users\Kevin\AppData\Local\Temp\ccJ9qp0a.s 			page 2


  20:.\Generated_Source\PSoC4/BLE_eventHandler.c **** /***************************************
  21:.\Generated_Source\PSoC4/BLE_eventHandler.c **** * Private Function Prototypes
  22:.\Generated_Source\PSoC4/BLE_eventHandler.c **** ***************************************/
  23:.\Generated_Source\PSoC4/BLE_eventHandler.c **** 
  24:.\Generated_Source\PSoC4/BLE_eventHandler.c **** #if (CYBLE_GATT_ROLE_SERVER || CYBLE_GATT_ROLE_CLIENT)
  25:.\Generated_Source\PSoC4/BLE_eventHandler.c **** 
  26:.\Generated_Source\PSoC4/BLE_eventHandler.c **** static uint8 CyBle_IsDeviceAddressValid(const CYBLE_GAP_BD_ADDR_T *sflashDeviceAddress);
  27:.\Generated_Source\PSoC4/BLE_eventHandler.c **** 
  28:.\Generated_Source\PSoC4/BLE_eventHandler.c **** #endif /* CYBLE_GATT_ROLE_SERVER || CYBLE_GATT_ROLE_CLIENT */
  29:.\Generated_Source\PSoC4/BLE_eventHandler.c **** 
  30:.\Generated_Source\PSoC4/BLE_eventHandler.c **** static void CyBle_GattDisconnectEventHandler(void);
  31:.\Generated_Source\PSoC4/BLE_eventHandler.c **** static void CyBle_TimeOutEventHandler(const CYBLE_TO_REASON_CODE_T *eventParam);
  32:.\Generated_Source\PSoC4/BLE_eventHandler.c **** static void CyBle_GattConnectReqHandler(void);
  33:.\Generated_Source\PSoC4/BLE_eventHandler.c **** static void CyBle_L2Cap_ConnParamUpdateRspEventHandler(uint16 response);
  34:.\Generated_Source\PSoC4/BLE_eventHandler.c **** static void CyBle_GapConnUpdateCompleteEventHandler(const CYBLE_GAP_CONN_PARAM_UPDATED_IN_CONTROLLE
  35:.\Generated_Source\PSoC4/BLE_eventHandler.c **** 
  36:.\Generated_Source\PSoC4/BLE_eventHandler.c **** 
  37:.\Generated_Source\PSoC4/BLE_eventHandler.c **** #if (CYBLE_GATT_ROLE_SERVER)
  38:.\Generated_Source\PSoC4/BLE_eventHandler.c **** 
  39:.\Generated_Source\PSoC4/BLE_eventHandler.c **** static void CyBle_WriteReqHandler(CYBLE_GATTS_WRITE_REQ_PARAM_T *eventParam);
  40:.\Generated_Source\PSoC4/BLE_eventHandler.c **** static void CyBle_ValueConfirmation(const CYBLE_CONN_HANDLE_T *eventParam);
  41:.\Generated_Source\PSoC4/BLE_eventHandler.c **** 
  42:.\Generated_Source\PSoC4/BLE_eventHandler.c **** #endif /* CYBLE_GATT_ROLE_SERVER */
  43:.\Generated_Source\PSoC4/BLE_eventHandler.c **** 
  44:.\Generated_Source\PSoC4/BLE_eventHandler.c **** #if (CYBLE_GATT_ROLE_CLIENT)
  45:.\Generated_Source\PSoC4/BLE_eventHandler.c **** 
  46:.\Generated_Source\PSoC4/BLE_eventHandler.c **** static void CyBle_GapcDiscoverCharacteristicsEventHandler(CYBLE_DISC_CHAR_INFO_T *discCharInfo);
  47:.\Generated_Source\PSoC4/BLE_eventHandler.c **** static CYBLE_GATT_ATTR_HANDLE_RANGE_T CyBle_GetCharRange(void);
  48:.\Generated_Source\PSoC4/BLE_eventHandler.c **** static void CyBle_GattcWriteResponseEventHandler(const CYBLE_CONN_HANDLE_T *eventParam);
  49:.\Generated_Source\PSoC4/BLE_eventHandler.c **** static void CyBle_NotificationEventHandler(CYBLE_GATTC_HANDLE_VALUE_NTF_PARAM_T *eventParam);
  50:.\Generated_Source\PSoC4/BLE_eventHandler.c **** static void CyBle_IndicationEventHandler(CYBLE_GATTC_HANDLE_VALUE_IND_PARAM_T *eventParam);
  51:.\Generated_Source\PSoC4/BLE_eventHandler.c **** static void CyBle_ReadResponseEventHandler(CYBLE_GATTC_READ_RSP_PARAM_T *eventParam);
  52:.\Generated_Source\PSoC4/BLE_eventHandler.c **** 
  53:.\Generated_Source\PSoC4/BLE_eventHandler.c **** #endif /* CYBLE_GATT_ROLE_CLIENT */
  54:.\Generated_Source\PSoC4/BLE_eventHandler.c **** 
  55:.\Generated_Source\PSoC4/BLE_eventHandler.c **** 
  56:.\Generated_Source\PSoC4/BLE_eventHandler.c **** /***************************************
  57:.\Generated_Source\PSoC4/BLE_eventHandler.c **** * Global Variables
  58:.\Generated_Source\PSoC4/BLE_eventHandler.c **** ***************************************/
  59:.\Generated_Source\PSoC4/BLE_eventHandler.c **** 
  60:.\Generated_Source\PSoC4/BLE_eventHandler.c **** /* This global variable is initialized after connection with peer device, 
  61:.\Generated_Source\PSoC4/BLE_eventHandler.c ****    after CYBLE_EVT_GATT_CONNECT_IND event, and could be used by application code
  62:.\Generated_Source\PSoC4/BLE_eventHandler.c ****    to send data to peer device. 
  63:.\Generated_Source\PSoC4/BLE_eventHandler.c **** */
  64:.\Generated_Source\PSoC4/BLE_eventHandler.c **** CYBLE_CONN_HANDLE_T cyBle_connHandle;
  65:.\Generated_Source\PSoC4/BLE_eventHandler.c **** 
  66:.\Generated_Source\PSoC4/BLE_eventHandler.c **** volatile uint8 cyBle_eventHandlerFlag;
  67:.\Generated_Source\PSoC4/BLE_eventHandler.c **** volatile uint8 cyBle_busyStatus;
  68:.\Generated_Source\PSoC4/BLE_eventHandler.c **** 
  69:.\Generated_Source\PSoC4/BLE_eventHandler.c **** #if(CYBLE_GAP_ROLE_PERIPHERAL || CYBLE_GAP_ROLE_BROADCASTER) 
  70:.\Generated_Source\PSoC4/BLE_eventHandler.c ****     uint8 cyBle_advertisingIntervalType;
  71:.\Generated_Source\PSoC4/BLE_eventHandler.c **** #endif /* CYBLE_GAP_ROLE_PERIPHERAL || CYBLE_GAP_ROLE_BROADCASTER) */
  72:.\Generated_Source\PSoC4/BLE_eventHandler.c **** 
  73:.\Generated_Source\PSoC4/BLE_eventHandler.c **** #if(CYBLE_GAP_ROLE_CENTRAL || CYBLE_GAP_ROLE_OBSERVER) 
  74:.\Generated_Source\PSoC4/BLE_eventHandler.c ****     uint8 cyBle_scanningIntervalType;
  75:.\Generated_Source\PSoC4/BLE_eventHandler.c **** #endif /* CYBLE_GAP_ROLE_CENTRAL || CYBLE_GAP_ROLE_OBSERVER */
  76:.\Generated_Source\PSoC4/BLE_eventHandler.c **** 
ARM GAS  C:\Users\Kevin\AppData\Local\Temp\ccJ9qp0a.s 			page 3


  77:.\Generated_Source\PSoC4/BLE_eventHandler.c **** #if(CYBLE_GATT_ROLE_SERVER)
  78:.\Generated_Source\PSoC4/BLE_eventHandler.c **** #if defined CYBLE_CTS_SERVER || defined CYBLE_ESS_SERVER
  79:.\Generated_Source\PSoC4/BLE_eventHandler.c **** CYBLE_GATT_ERR_CODE_T cyBle_gattError;
  80:.\Generated_Source\PSoC4/BLE_eventHandler.c **** #endif /* defined CYBLE_CTS_SERVER || defined CYBLE_ESS_SERVER */
  81:.\Generated_Source\PSoC4/BLE_eventHandler.c **** #endif /* CYBLE_GATT_ROLE_SERVER */
  82:.\Generated_Source\PSoC4/BLE_eventHandler.c **** 
  83:.\Generated_Source\PSoC4/BLE_eventHandler.c **** #if(CYBLE_GATT_ROLE_CLIENT)
  84:.\Generated_Source\PSoC4/BLE_eventHandler.c **** uint8 cyBle_disCount; /* Counter for discovery procedures */
  85:.\Generated_Source\PSoC4/BLE_eventHandler.c **** static CYBLE_GATT_DB_ATTR_HANDLE_T cyBle_charEndHandle;
  86:.\Generated_Source\PSoC4/BLE_eventHandler.c **** /* Discovery included service information, used for 128-bit UUID read response handle 
  87:.\Generated_Source\PSoC4/BLE_eventHandler.c ****    and for continue discovery. 
  88:.\Generated_Source\PSoC4/BLE_eventHandler.c **** */
  89:.\Generated_Source\PSoC4/BLE_eventHandler.c **** static CYBLE_DISC_INCL_INFO_T cyBle_discInclInfo;
  90:.\Generated_Source\PSoC4/BLE_eventHandler.c **** #ifdef CYBLE_HIDS_CLIENT
  91:.\Generated_Source\PSoC4/BLE_eventHandler.c ****     static uint8 disServiceIndex;      /* To discovery descriptors for multiple HID service instanc
  92:.\Generated_Source\PSoC4/BLE_eventHandler.c **** #endif /* CYBLE_HIDS_CLIENT */
  93:.\Generated_Source\PSoC4/BLE_eventHandler.c **** 
  94:.\Generated_Source\PSoC4/BLE_eventHandler.c **** CYBLE_DISC_SRVC_INFO_T cyBle_serverInfo[CYBLE_SRVI_COUNT] = /*3*/
  95:.\Generated_Source\PSoC4/BLE_eventHandler.c **** {
  96:.\Generated_Source\PSoC4/BLE_eventHandler.c ****     {{CYBLE_GATT_INVALID_ATTR_HANDLE_VALUE, CYBLE_GATT_INVALID_ATTR_HANDLE_VALUE}, CYBLE_UUID_GAP_S
  97:.\Generated_Source\PSoC4/BLE_eventHandler.c ****     {{CYBLE_GATT_INVALID_ATTR_HANDLE_VALUE, CYBLE_GATT_INVALID_ATTR_HANDLE_VALUE}, CYBLE_UUID_GATT_
  98:.\Generated_Source\PSoC4/BLE_eventHandler.c **** #ifdef CYBLE_ANCS_CLIENT
  99:.\Generated_Source\PSoC4/BLE_eventHandler.c ****     {{CYBLE_GATT_INVALID_ATTR_HANDLE_VALUE, CYBLE_GATT_INVALID_ATTR_HANDLE_VALUE}, 0x0000u},
 100:.\Generated_Source\PSoC4/BLE_eventHandler.c **** #endif /* CYBLE_ANCS_CLIENT */
 101:.\Generated_Source\PSoC4/BLE_eventHandler.c **** #ifdef CYBLE_ANS_CLIENT
 102:.\Generated_Source\PSoC4/BLE_eventHandler.c ****     {{CYBLE_GATT_INVALID_ATTR_HANDLE_VALUE, CYBLE_GATT_INVALID_ATTR_HANDLE_VALUE}, 
 103:.\Generated_Source\PSoC4/BLE_eventHandler.c ****         CYBLE_UUID_ALERT_NOTIFICATION_SERVICE},
 104:.\Generated_Source\PSoC4/BLE_eventHandler.c **** #endif /* CYBLE_ANS_CLIENT */
 105:.\Generated_Source\PSoC4/BLE_eventHandler.c **** #ifdef CYBLE_BAS_CLIENT
 106:.\Generated_Source\PSoC4/BLE_eventHandler.c ****     {{CYBLE_GATT_INVALID_ATTR_HANDLE_VALUE, CYBLE_GATT_INVALID_ATTR_HANDLE_VALUE}, CYBLE_UUID_BAS_S
 107:.\Generated_Source\PSoC4/BLE_eventHandler.c ****     #if(CYBLE_BASC_SERVICE_COUNT > 1u) /* Generate it by GUI */
 108:.\Generated_Source\PSoC4/BLE_eventHandler.c ****         
 109:.\Generated_Source\PSoC4/BLE_eventHandler.c ****     #endif /* CYBLE_BASC_SERVICE_COUNT > 1u */
 110:.\Generated_Source\PSoC4/BLE_eventHandler.c **** #endif /* CYBLE_BAS_CLIENT */
 111:.\Generated_Source\PSoC4/BLE_eventHandler.c **** #ifdef CYBLE_BCS_CLIENT
 112:.\Generated_Source\PSoC4/BLE_eventHandler.c ****     {{CYBLE_GATT_INVALID_ATTR_HANDLE_VALUE, CYBLE_GATT_INVALID_ATTR_HANDLE_VALUE}, CYBLE_UUID_BODY_
 113:.\Generated_Source\PSoC4/BLE_eventHandler.c **** #endif /* CYBLE_BCS_CLIENT */
 114:.\Generated_Source\PSoC4/BLE_eventHandler.c **** #ifdef CYBLE_BLS_CLIENT
 115:.\Generated_Source\PSoC4/BLE_eventHandler.c ****     {{CYBLE_GATT_INVALID_ATTR_HANDLE_VALUE, CYBLE_GATT_INVALID_ATTR_HANDLE_VALUE}, CYBLE_UUID_BLOOD
 116:.\Generated_Source\PSoC4/BLE_eventHandler.c **** #endif /* CYBLE_BLS_CLIENT */
 117:.\Generated_Source\PSoC4/BLE_eventHandler.c **** #ifdef CYBLE_BMS_CLIENT
 118:.\Generated_Source\PSoC4/BLE_eventHandler.c ****     {{CYBLE_GATT_INVALID_ATTR_HANDLE_VALUE, CYBLE_GATT_INVALID_ATTR_HANDLE_VALUE}, CYBLE_UUID_BOND_
 119:.\Generated_Source\PSoC4/BLE_eventHandler.c **** #endif /* CYBLE_BMS_CLIENT */
 120:.\Generated_Source\PSoC4/BLE_eventHandler.c **** #ifdef CYBLE_CGMS_CLIENT
 121:.\Generated_Source\PSoC4/BLE_eventHandler.c ****     {{CYBLE_GATT_INVALID_ATTR_HANDLE_VALUE, CYBLE_GATT_INVALID_ATTR_HANDLE_VALUE}, CYBLE_UUID_CGM_S
 122:.\Generated_Source\PSoC4/BLE_eventHandler.c **** #endif /* CYBLE_CGMS_CLIENT */
 123:.\Generated_Source\PSoC4/BLE_eventHandler.c **** #ifdef CYBLE_CPS_CLIENT
 124:.\Generated_Source\PSoC4/BLE_eventHandler.c ****     {{CYBLE_GATT_INVALID_ATTR_HANDLE_VALUE, CYBLE_GATT_INVALID_ATTR_HANDLE_VALUE}, CYBLE_UUID_CPS_S
 125:.\Generated_Source\PSoC4/BLE_eventHandler.c **** #endif /* CYBLE_CPS_CLIENT */
 126:.\Generated_Source\PSoC4/BLE_eventHandler.c **** #ifdef CYBLE_CSCS_CLIENT
 127:.\Generated_Source\PSoC4/BLE_eventHandler.c ****     {{CYBLE_GATT_INVALID_ATTR_HANDLE_VALUE, CYBLE_GATT_INVALID_ATTR_HANDLE_VALUE}, 
 128:.\Generated_Source\PSoC4/BLE_eventHandler.c ****         CYBLE_UUID_CYCLING_SPEED_AND_CADENCE_SERVICE},
 129:.\Generated_Source\PSoC4/BLE_eventHandler.c **** #endif /* CYBLE_CSCS_CLIENT */
 130:.\Generated_Source\PSoC4/BLE_eventHandler.c **** #ifdef CYBLE_CTS_CLIENT
 131:.\Generated_Source\PSoC4/BLE_eventHandler.c ****     {{CYBLE_GATT_INVALID_ATTR_HANDLE_VALUE, CYBLE_GATT_INVALID_ATTR_HANDLE_VALUE}, CYBLE_UUID_CURRE
 132:.\Generated_Source\PSoC4/BLE_eventHandler.c **** #endif /* CYBLE_CTS_CLIENT */
 133:.\Generated_Source\PSoC4/BLE_eventHandler.c **** #ifdef CYBLE_CUSTOM_CLIENT
ARM GAS  C:\Users\Kevin\AppData\Local\Temp\ccJ9qp0a.s 			page 4


 134:.\Generated_Source\PSoC4/BLE_eventHandler.c ****     
 135:.\Generated_Source\PSoC4/BLE_eventHandler.c **** #endif /* CYBLE_CUSTOM_CLIENT */
 136:.\Generated_Source\PSoC4/BLE_eventHandler.c **** #ifdef CYBLE_DIS_CLIENT
 137:.\Generated_Source\PSoC4/BLE_eventHandler.c ****     {{CYBLE_GATT_INVALID_ATTR_HANDLE_VALUE, CYBLE_GATT_INVALID_ATTR_HANDLE_VALUE}, CYBLE_UUID_DEVIC
 138:.\Generated_Source\PSoC4/BLE_eventHandler.c **** #endif /* CYBLE_DIS_CLIENT */
 139:.\Generated_Source\PSoC4/BLE_eventHandler.c **** #ifdef CYBLE_ESS_CLIENT
 140:.\Generated_Source\PSoC4/BLE_eventHandler.c ****     {{CYBLE_GATT_INVALID_ATTR_HANDLE_VALUE, CYBLE_GATT_INVALID_ATTR_HANDLE_VALUE}, 
 141:.\Generated_Source\PSoC4/BLE_eventHandler.c ****         CYBLE_UUID_ENVIRONMENTAL_SENSING_SERVICE},
 142:.\Generated_Source\PSoC4/BLE_eventHandler.c **** #endif /* CYBLE_ESS_CLIENT */
 143:.\Generated_Source\PSoC4/BLE_eventHandler.c **** #ifdef CYBLE_GLS_CLIENT
 144:.\Generated_Source\PSoC4/BLE_eventHandler.c ****     {{CYBLE_GATT_INVALID_ATTR_HANDLE_VALUE, CYBLE_GATT_INVALID_ATTR_HANDLE_VALUE}, CYBLE_UUID_GLUCO
 145:.\Generated_Source\PSoC4/BLE_eventHandler.c **** #endif /* CYBLE_GLS_CLIENT */
 146:.\Generated_Source\PSoC4/BLE_eventHandler.c **** #ifdef CYBLE_HIDS_CLIENT
 147:.\Generated_Source\PSoC4/BLE_eventHandler.c ****     {{CYBLE_GATT_INVALID_ATTR_HANDLE_VALUE, CYBLE_GATT_INVALID_ATTR_HANDLE_VALUE}, CYBLE_UUID_HIDS_
 148:.\Generated_Source\PSoC4/BLE_eventHandler.c ****     #if(CYBLE_HIDSC_SERVICE_COUNT > 1u) /* Generate it by GUI */
 149:.\Generated_Source\PSoC4/BLE_eventHandler.c ****         
 150:.\Generated_Source\PSoC4/BLE_eventHandler.c ****     #endif /* CYBLE_HIDSC_SERVICE_COUNT > 1u */
 151:.\Generated_Source\PSoC4/BLE_eventHandler.c **** #endif /* CYBLE_HIDS_CLIENT */
 152:.\Generated_Source\PSoC4/BLE_eventHandler.c **** #ifdef CYBLE_HRS_CLIENT
 153:.\Generated_Source\PSoC4/BLE_eventHandler.c ****     {{CYBLE_GATT_INVALID_ATTR_HANDLE_VALUE, CYBLE_GATT_INVALID_ATTR_HANDLE_VALUE}, CYBLE_UUID_HEART
 154:.\Generated_Source\PSoC4/BLE_eventHandler.c **** #endif /* CYBLE_HRS_CLIENT */
 155:.\Generated_Source\PSoC4/BLE_eventHandler.c **** #ifdef CYBLE_HTS_CLIENT
 156:.\Generated_Source\PSoC4/BLE_eventHandler.c ****     {{CYBLE_GATT_INVALID_ATTR_HANDLE_VALUE, CYBLE_GATT_INVALID_ATTR_HANDLE_VALUE}, CYBLE_UUID_HEALT
 157:.\Generated_Source\PSoC4/BLE_eventHandler.c **** #endif /* CYBLE_HTS_CLIENT */
 158:.\Generated_Source\PSoC4/BLE_eventHandler.c **** #ifdef CYBLE_IAS_CLIENT
 159:.\Generated_Source\PSoC4/BLE_eventHandler.c ****     {{CYBLE_GATT_INVALID_ATTR_HANDLE_VALUE, CYBLE_GATT_INVALID_ATTR_HANDLE_VALUE}, CYBLE_UUID_IMMED
 160:.\Generated_Source\PSoC4/BLE_eventHandler.c **** #endif /* CYBLE_IAS_CLIENT */
 161:.\Generated_Source\PSoC4/BLE_eventHandler.c **** #ifdef CYBLE_LLS_CLIENT
 162:.\Generated_Source\PSoC4/BLE_eventHandler.c ****     {{CYBLE_GATT_INVALID_ATTR_HANDLE_VALUE, CYBLE_GATT_INVALID_ATTR_HANDLE_VALUE}, CYBLE_UUID_LINK_
 163:.\Generated_Source\PSoC4/BLE_eventHandler.c **** #endif /* CYBLE_LLS_CLIENT */
 164:.\Generated_Source\PSoC4/BLE_eventHandler.c **** #ifdef CYBLE_LNS_CLIENT
 165:.\Generated_Source\PSoC4/BLE_eventHandler.c ****     {{CYBLE_GATT_INVALID_ATTR_HANDLE_VALUE, CYBLE_GATT_INVALID_ATTR_HANDLE_VALUE}, CYBLE_UUID_LOCAT
 166:.\Generated_Source\PSoC4/BLE_eventHandler.c **** #endif /* CYBLE_LNS_CLIENT */
 167:.\Generated_Source\PSoC4/BLE_eventHandler.c **** #ifdef CYBLE_NDCS_CLIENT
 168:.\Generated_Source\PSoC4/BLE_eventHandler.c ****     {{CYBLE_GATT_INVALID_ATTR_HANDLE_VALUE, CYBLE_GATT_INVALID_ATTR_HANDLE_VALUE}, CYBLE_UUID_NEXT_
 169:.\Generated_Source\PSoC4/BLE_eventHandler.c **** #endif /* CYBLE_NDCS_CLIENT */
 170:.\Generated_Source\PSoC4/BLE_eventHandler.c **** #ifdef CYBLE_IPSS_CLIENT
 171:.\Generated_Source\PSoC4/BLE_eventHandler.c ****     {{CYBLE_GATT_INVALID_ATTR_HANDLE_VALUE, CYBLE_GATT_INVALID_ATTR_HANDLE_VALUE}, CYBLE_UUID_INTER
 172:.\Generated_Source\PSoC4/BLE_eventHandler.c **** #endif /* CYBLE_IPSS_CLIENT */
 173:.\Generated_Source\PSoC4/BLE_eventHandler.c **** #ifdef CYBLE_PASS_CLIENT
 174:.\Generated_Source\PSoC4/BLE_eventHandler.c ****     {{CYBLE_GATT_INVALID_ATTR_HANDLE_VALUE, CYBLE_GATT_INVALID_ATTR_HANDLE_VALUE}, CYBLE_UUID_PHONE
 175:.\Generated_Source\PSoC4/BLE_eventHandler.c **** #endif /* CYBLE_PASS_CLIENT */
 176:.\Generated_Source\PSoC4/BLE_eventHandler.c **** #ifdef CYBLE_RSCS_CLIENT
 177:.\Generated_Source\PSoC4/BLE_eventHandler.c ****     {{CYBLE_GATT_INVALID_ATTR_HANDLE_VALUE, CYBLE_GATT_INVALID_ATTR_HANDLE_VALUE}, CYBLE_UUID_RUNNI
 178:.\Generated_Source\PSoC4/BLE_eventHandler.c **** #endif /* CYBLE_RSCS_CLIENT */
 179:.\Generated_Source\PSoC4/BLE_eventHandler.c **** #ifdef CYBLE_RTUS_CLIENT
 180:.\Generated_Source\PSoC4/BLE_eventHandler.c ****     {{CYBLE_GATT_INVALID_ATTR_HANDLE_VALUE, CYBLE_GATT_INVALID_ATTR_HANDLE_VALUE}, CYBLE_UUID_REF_T
 181:.\Generated_Source\PSoC4/BLE_eventHandler.c **** #endif /* CYBLE_RTUS_CLIENT */
 182:.\Generated_Source\PSoC4/BLE_eventHandler.c **** #ifdef CYBLE_SCPS_CLIENT
 183:.\Generated_Source\PSoC4/BLE_eventHandler.c ****     {{CYBLE_GATT_INVALID_ATTR_HANDLE_VALUE, CYBLE_GATT_INVALID_ATTR_HANDLE_VALUE}, CYBLE_UUID_SCAN_
 184:.\Generated_Source\PSoC4/BLE_eventHandler.c **** #endif /* CYBLE_SCPS_CLIENT */
 185:.\Generated_Source\PSoC4/BLE_eventHandler.c **** #ifdef CYBLE_TPS_CLIENT
 186:.\Generated_Source\PSoC4/BLE_eventHandler.c ****     {{CYBLE_GATT_INVALID_ATTR_HANDLE_VALUE, CYBLE_GATT_INVALID_ATTR_HANDLE_VALUE}, CYBLE_UUID_TX_PO
 187:.\Generated_Source\PSoC4/BLE_eventHandler.c **** #endif /* CYBLE_TPS_CLIENT */
 188:.\Generated_Source\PSoC4/BLE_eventHandler.c **** #ifdef CYBLE_UDS_CLIENT
 189:.\Generated_Source\PSoC4/BLE_eventHandler.c ****     {{CYBLE_GATT_INVALID_ATTR_HANDLE_VALUE, CYBLE_GATT_INVALID_ATTR_HANDLE_VALUE}, CYBLE_UUID_USER_
 190:.\Generated_Source\PSoC4/BLE_eventHandler.c **** #endif /* CYBLE_UDS_CLIENT */
ARM GAS  C:\Users\Kevin\AppData\Local\Temp\ccJ9qp0a.s 			page 5


 191:.\Generated_Source\PSoC4/BLE_eventHandler.c **** #ifdef CYBLE_WSS_CLIENT
 192:.\Generated_Source\PSoC4/BLE_eventHandler.c ****     {{CYBLE_GATT_INVALID_ATTR_HANDLE_VALUE, CYBLE_GATT_INVALID_ATTR_HANDLE_VALUE}, CYBLE_UUID_WEIGH
 193:.\Generated_Source\PSoC4/BLE_eventHandler.c **** #endif /* CYBLE_WSS_CLIENT */
 194:.\Generated_Source\PSoC4/BLE_eventHandler.c **** #ifdef CYBLE_WPTS_CLIENT
 195:.\Generated_Source\PSoC4/BLE_eventHandler.c ****     {{CYBLE_GATT_INVALID_ATTR_HANDLE_VALUE, CYBLE_GATT_INVALID_ATTR_HANDLE_VALUE}, CYBLE_UUID_WIREL
 196:.\Generated_Source\PSoC4/BLE_eventHandler.c **** #endif /* CYBLE_WPTS_CLIENT */
 197:.\Generated_Source\PSoC4/BLE_eventHandler.c **** };
 198:.\Generated_Source\PSoC4/BLE_eventHandler.c **** 
 199:.\Generated_Source\PSoC4/BLE_eventHandler.c **** CYBLE_GAPC_T cyBle_gapc;
 200:.\Generated_Source\PSoC4/BLE_eventHandler.c **** 
 201:.\Generated_Source\PSoC4/BLE_eventHandler.c **** #endif /* CYBLE_GATT_ROLE_CLIENT */
 202:.\Generated_Source\PSoC4/BLE_eventHandler.c **** 
 203:.\Generated_Source\PSoC4/BLE_eventHandler.c **** /* Default device security */
 204:.\Generated_Source\PSoC4/BLE_eventHandler.c **** CYBLE_GAP_AUTH_INFO_T cyBle_authInfo =
 205:.\Generated_Source\PSoC4/BLE_eventHandler.c **** {
 206:.\Generated_Source\PSoC4/BLE_eventHandler.c ****     (CYBLE_GAP_SEC_MODE_1 | CYBLE_GAP_SEC_LEVEL_1 ), /* uint8 security */
 207:.\Generated_Source\PSoC4/BLE_eventHandler.c ****     CYBLE_GAP_BONDING_NONE, /* uint8 bonding */
 208:.\Generated_Source\PSoC4/BLE_eventHandler.c ****     0x10u,      /* uint8 ekeySize */
 209:.\Generated_Source\PSoC4/BLE_eventHandler.c ****     CYBLE_GAP_AUTH_ERROR_NONE, /* CYBLE_AUTH_FAILED_REASON_T authErr */
 210:.\Generated_Source\PSoC4/BLE_eventHandler.c **** };
 211:.\Generated_Source\PSoC4/BLE_eventHandler.c **** 
 212:.\Generated_Source\PSoC4/BLE_eventHandler.c **** #if(CYBLE_GATT_ROLE_SERVER)
 213:.\Generated_Source\PSoC4/BLE_eventHandler.c **** 
 214:.\Generated_Source\PSoC4/BLE_eventHandler.c **** 
 215:.\Generated_Source\PSoC4/BLE_eventHandler.c **** /******************************************************************************    
 216:.\Generated_Source\PSoC4/BLE_eventHandler.c **** * Function Name: CyBle_WriteReqHandler
 217:.\Generated_Source\PSoC4/BLE_eventHandler.c **** ***************************************************************************//**
 218:.\Generated_Source\PSoC4/BLE_eventHandler.c **** * 
 219:.\Generated_Source\PSoC4/BLE_eventHandler.c **** *  Handles the Write Request event from BLE stack.
 220:.\Generated_Source\PSoC4/BLE_eventHandler.c **** * 
 221:.\Generated_Source\PSoC4/BLE_eventHandler.c **** *  CYBLE_GATTS_WRITE_REQ_PARAM_T * eventParam - event parameter
 222:.\Generated_Source\PSoC4/BLE_eventHandler.c **** * 
 223:.\Generated_Source\PSoC4/BLE_eventHandler.c **** * \return
 224:.\Generated_Source\PSoC4/BLE_eventHandler.c **** *  None
 225:.\Generated_Source\PSoC4/BLE_eventHandler.c **** * 
 226:.\Generated_Source\PSoC4/BLE_eventHandler.c **** ******************************************************************************/
 227:.\Generated_Source\PSoC4/BLE_eventHandler.c **** static void CyBle_WriteReqHandler(CYBLE_GATTS_WRITE_REQ_PARAM_T *eventParam)
 228:.\Generated_Source\PSoC4/BLE_eventHandler.c **** {
  39              		.loc 1 228 0
  40              		.cfi_startproc
  41 0000 90B5     		push	{r4, r7, lr}
  42              		.cfi_def_cfa_offset 12
  43              		.cfi_offset 4, -12
  44              		.cfi_offset 7, -8
  45              		.cfi_offset 14, -4
  46 0002 85B0     		sub	sp, sp, #20
  47              		.cfi_def_cfa_offset 32
  48 0004 00AF     		add	r7, sp, #0
  49              		.cfi_def_cfa_register 7
  50 0006 7860     		str	r0, [r7, #4]
 229:.\Generated_Source\PSoC4/BLE_eventHandler.c ****     CYBLE_GATT_ERR_CODE_T gattErr;
 230:.\Generated_Source\PSoC4/BLE_eventHandler.c **** #if defined CYBLE_CTS_SERVER || defined CYBLE_ESS_SERVER
 231:.\Generated_Source\PSoC4/BLE_eventHandler.c ****     cyBle_gattError = CYBLE_GATT_ERR_NONE;
 232:.\Generated_Source\PSoC4/BLE_eventHandler.c **** #endif /* defined CYBLE_CTS_SERVER || defined CYBLE_ESS_SERVER */
 233:.\Generated_Source\PSoC4/BLE_eventHandler.c ****     
 234:.\Generated_Source\PSoC4/BLE_eventHandler.c ****     gattErr = CyBle_GattsWriteEventHandler(eventParam);
  51              		.loc 1 234 0
ARM GAS  C:\Users\Kevin\AppData\Local\Temp\ccJ9qp0a.s 			page 6


  52 0008 0F23     		mov	r3, #15
  53 000a FC18     		add	r4, r7, r3
  54 000c 7B68     		ldr	r3, [r7, #4]
  55 000e 181C     		mov	r0, r3
  56 0010 FFF7FEFF 		bl	CyBle_GattsWriteEventHandler
  57 0014 031C     		mov	r3, r0
  58 0016 2370     		strb	r3, [r4]
 235:.\Generated_Source\PSoC4/BLE_eventHandler.c **** #ifdef CYBLE_ANCS_SERVER
 236:.\Generated_Source\PSoC4/BLE_eventHandler.c ****     if(((cyBle_eventHandlerFlag & CYBLE_CALLBACK) != 0u) && (gattErr == CYBLE_GATT_ERR_NONE))
 237:.\Generated_Source\PSoC4/BLE_eventHandler.c ****     {
 238:.\Generated_Source\PSoC4/BLE_eventHandler.c ****         gattErr = CyBle_AncssWriteEventHandler(eventParam);
 239:.\Generated_Source\PSoC4/BLE_eventHandler.c ****     }
 240:.\Generated_Source\PSoC4/BLE_eventHandler.c **** #endif /* CYBLE_ANCS_SERVER */
 241:.\Generated_Source\PSoC4/BLE_eventHandler.c **** #ifdef CYBLE_ANS_SERVER
 242:.\Generated_Source\PSoC4/BLE_eventHandler.c ****     if(((cyBle_eventHandlerFlag & CYBLE_CALLBACK) != 0u) && (gattErr == CYBLE_GATT_ERR_NONE))
 243:.\Generated_Source\PSoC4/BLE_eventHandler.c ****     {
 244:.\Generated_Source\PSoC4/BLE_eventHandler.c ****         gattErr = CyBle_AnssWriteEventHandler(eventParam);
 245:.\Generated_Source\PSoC4/BLE_eventHandler.c ****     }
 246:.\Generated_Source\PSoC4/BLE_eventHandler.c **** #endif /* CYBLE_ANS_SERVER */
 247:.\Generated_Source\PSoC4/BLE_eventHandler.c **** #ifdef CYBLE_BAS_SERVER
 248:.\Generated_Source\PSoC4/BLE_eventHandler.c ****     if(((cyBle_eventHandlerFlag & CYBLE_CALLBACK) != 0u) && (gattErr == CYBLE_GATT_ERR_NONE))
 249:.\Generated_Source\PSoC4/BLE_eventHandler.c ****     {
 250:.\Generated_Source\PSoC4/BLE_eventHandler.c ****         gattErr = CyBle_BassWriteEventHandler(eventParam);
 251:.\Generated_Source\PSoC4/BLE_eventHandler.c ****     }
 252:.\Generated_Source\PSoC4/BLE_eventHandler.c **** #endif /* CYBLE_BAS_SERVER */
 253:.\Generated_Source\PSoC4/BLE_eventHandler.c **** #ifdef CYBLE_BCS_SERVER
 254:.\Generated_Source\PSoC4/BLE_eventHandler.c ****     if(((cyBle_eventHandlerFlag & CYBLE_CALLBACK) != 0u) && (gattErr == CYBLE_GATT_ERR_NONE))
 255:.\Generated_Source\PSoC4/BLE_eventHandler.c ****     {
 256:.\Generated_Source\PSoC4/BLE_eventHandler.c ****         gattErr = CyBle_BcssWriteEventHandler(eventParam);
 257:.\Generated_Source\PSoC4/BLE_eventHandler.c ****     }
 258:.\Generated_Source\PSoC4/BLE_eventHandler.c **** #endif /* CYBLE_BCS_SERVER */
 259:.\Generated_Source\PSoC4/BLE_eventHandler.c **** #ifdef CYBLE_BLS_SERVER
 260:.\Generated_Source\PSoC4/BLE_eventHandler.c ****     if(((cyBle_eventHandlerFlag & CYBLE_CALLBACK) != 0u) && (gattErr == CYBLE_GATT_ERR_NONE))
 261:.\Generated_Source\PSoC4/BLE_eventHandler.c ****     {
 262:.\Generated_Source\PSoC4/BLE_eventHandler.c ****         gattErr = CyBle_BlssWriteEventHandler(eventParam);
 263:.\Generated_Source\PSoC4/BLE_eventHandler.c ****     }
 264:.\Generated_Source\PSoC4/BLE_eventHandler.c **** #endif /* CYBLE_BLS_SERVER */
 265:.\Generated_Source\PSoC4/BLE_eventHandler.c **** #ifdef CYBLE_BMS_SERVER
 266:.\Generated_Source\PSoC4/BLE_eventHandler.c ****     if(((cyBle_eventHandlerFlag & CYBLE_CALLBACK) != 0u) && (gattErr == CYBLE_GATT_ERR_NONE))
 267:.\Generated_Source\PSoC4/BLE_eventHandler.c ****     {
 268:.\Generated_Source\PSoC4/BLE_eventHandler.c ****         gattErr = CyBle_BmssWriteEventHandler(eventParam);
 269:.\Generated_Source\PSoC4/BLE_eventHandler.c ****     }
 270:.\Generated_Source\PSoC4/BLE_eventHandler.c **** #endif /* CYBLE_BMS_SERVER */
 271:.\Generated_Source\PSoC4/BLE_eventHandler.c **** #ifdef CYBLE_BTS_SERVER
 272:.\Generated_Source\PSoC4/BLE_eventHandler.c ****     if((cyBle_eventHandlerFlag & CYBLE_CALLBACK) != 0u)
 273:.\Generated_Source\PSoC4/BLE_eventHandler.c ****     {
 274:.\Generated_Source\PSoC4/BLE_eventHandler.c ****         gattErr = CyBle_BtsWriteEventHandler(eventParam);
 275:.\Generated_Source\PSoC4/BLE_eventHandler.c ****     }
 276:.\Generated_Source\PSoC4/BLE_eventHandler.c **** #endif /* CYBLE_BTS_SERVER */
 277:.\Generated_Source\PSoC4/BLE_eventHandler.c **** #ifdef CYBLE_CGMS_SERVER
 278:.\Generated_Source\PSoC4/BLE_eventHandler.c ****     if(((cyBle_eventHandlerFlag & CYBLE_CALLBACK) != 0u) && (gattErr == CYBLE_GATT_ERR_NONE))
 279:.\Generated_Source\PSoC4/BLE_eventHandler.c ****     {
 280:.\Generated_Source\PSoC4/BLE_eventHandler.c ****         gattErr = CyBle_CgmssWriteEventHandler(eventParam);
 281:.\Generated_Source\PSoC4/BLE_eventHandler.c ****     }
 282:.\Generated_Source\PSoC4/BLE_eventHandler.c **** #endif /* CYBLE_CGMS_SERVER */
 283:.\Generated_Source\PSoC4/BLE_eventHandler.c **** #ifdef CYBLE_CPS_SERVER
 284:.\Generated_Source\PSoC4/BLE_eventHandler.c ****     if(((cyBle_eventHandlerFlag & CYBLE_CALLBACK) != 0u) && (gattErr == CYBLE_GATT_ERR_NONE))
ARM GAS  C:\Users\Kevin\AppData\Local\Temp\ccJ9qp0a.s 			page 7


 285:.\Generated_Source\PSoC4/BLE_eventHandler.c ****     {
 286:.\Generated_Source\PSoC4/BLE_eventHandler.c ****         gattErr = CyBle_CpssWriteEventHandler(eventParam);
 287:.\Generated_Source\PSoC4/BLE_eventHandler.c ****     }
 288:.\Generated_Source\PSoC4/BLE_eventHandler.c **** #endif /* CYBLE_CPS_SERVER */
 289:.\Generated_Source\PSoC4/BLE_eventHandler.c **** #ifdef CYBLE_CSCS_SERVER
 290:.\Generated_Source\PSoC4/BLE_eventHandler.c ****     if(((cyBle_eventHandlerFlag & CYBLE_CALLBACK) != 0u) && (gattErr == CYBLE_GATT_ERR_NONE))
 291:.\Generated_Source\PSoC4/BLE_eventHandler.c ****     {
 292:.\Generated_Source\PSoC4/BLE_eventHandler.c ****         gattErr = CyBle_CscssWriteEventHandler(eventParam);
 293:.\Generated_Source\PSoC4/BLE_eventHandler.c ****     }
 294:.\Generated_Source\PSoC4/BLE_eventHandler.c **** #endif /* CYBLE_CSCS_SERVER */
 295:.\Generated_Source\PSoC4/BLE_eventHandler.c **** #ifdef CYBLE_CTS_SERVER
 296:.\Generated_Source\PSoC4/BLE_eventHandler.c ****     if(((cyBle_eventHandlerFlag & CYBLE_CALLBACK) != 0u) && (gattErr == CYBLE_GATT_ERR_NONE))
 297:.\Generated_Source\PSoC4/BLE_eventHandler.c ****     {
 298:.\Generated_Source\PSoC4/BLE_eventHandler.c ****         gattErr = CyBle_CtssWriteEventHandler(eventParam);
 299:.\Generated_Source\PSoC4/BLE_eventHandler.c ****     }
 300:.\Generated_Source\PSoC4/BLE_eventHandler.c **** #endif /* CYBLE_CTS_SERVER */
 301:.\Generated_Source\PSoC4/BLE_eventHandler.c **** #ifdef CYBLE_ESS_SERVER
 302:.\Generated_Source\PSoC4/BLE_eventHandler.c ****     if(((cyBle_eventHandlerFlag & CYBLE_CALLBACK) != 0u) && (gattErr == CYBLE_GATT_ERR_NONE))
 303:.\Generated_Source\PSoC4/BLE_eventHandler.c ****     {
 304:.\Generated_Source\PSoC4/BLE_eventHandler.c ****         gattErr = CyBle_EsssWriteEventHandler(eventParam);
 305:.\Generated_Source\PSoC4/BLE_eventHandler.c ****     }
 306:.\Generated_Source\PSoC4/BLE_eventHandler.c **** #endif /* CYBLE_ESS_SERVER */
 307:.\Generated_Source\PSoC4/BLE_eventHandler.c **** #ifdef CYBLE_GLS_SERVER
 308:.\Generated_Source\PSoC4/BLE_eventHandler.c ****     if(((cyBle_eventHandlerFlag & CYBLE_CALLBACK) != 0u) && (gattErr == CYBLE_GATT_ERR_NONE))
 309:.\Generated_Source\PSoC4/BLE_eventHandler.c ****     {
 310:.\Generated_Source\PSoC4/BLE_eventHandler.c ****         gattErr = CyBle_GlssWriteEventHandler(eventParam);
 311:.\Generated_Source\PSoC4/BLE_eventHandler.c ****     }
 312:.\Generated_Source\PSoC4/BLE_eventHandler.c **** #endif /* CYBLE_GLS_SERVER */
 313:.\Generated_Source\PSoC4/BLE_eventHandler.c **** #ifdef CYBLE_HIDS_SERVER
 314:.\Generated_Source\PSoC4/BLE_eventHandler.c ****     if(((cyBle_eventHandlerFlag & CYBLE_CALLBACK) != 0u) && (gattErr == CYBLE_GATT_ERR_NONE))
 315:.\Generated_Source\PSoC4/BLE_eventHandler.c ****     {
 316:.\Generated_Source\PSoC4/BLE_eventHandler.c ****         gattErr = CyBle_HidssWriteEventHandler(eventParam);
 317:.\Generated_Source\PSoC4/BLE_eventHandler.c ****     }
 318:.\Generated_Source\PSoC4/BLE_eventHandler.c **** #endif /* CYBLE_HIDS_SERVER */
 319:.\Generated_Source\PSoC4/BLE_eventHandler.c **** #ifdef CYBLE_HRS_SERVER
 320:.\Generated_Source\PSoC4/BLE_eventHandler.c ****     if(((cyBle_eventHandlerFlag & CYBLE_CALLBACK) != 0u) && (gattErr == CYBLE_GATT_ERR_NONE))
 321:.\Generated_Source\PSoC4/BLE_eventHandler.c ****     {
 322:.\Generated_Source\PSoC4/BLE_eventHandler.c ****         gattErr = CyBle_HrssWriteEventHandler(eventParam);
 323:.\Generated_Source\PSoC4/BLE_eventHandler.c ****     }
 324:.\Generated_Source\PSoC4/BLE_eventHandler.c **** #endif /* CYBLE_HRS_SERVER */
 325:.\Generated_Source\PSoC4/BLE_eventHandler.c **** #ifdef CYBLE_HTS_SERVER
 326:.\Generated_Source\PSoC4/BLE_eventHandler.c ****     if(((cyBle_eventHandlerFlag & CYBLE_CALLBACK) != 0u) && (gattErr == CYBLE_GATT_ERR_NONE))
 327:.\Generated_Source\PSoC4/BLE_eventHandler.c ****     {
 328:.\Generated_Source\PSoC4/BLE_eventHandler.c ****         gattErr = CyBle_HtssWriteEventHandler(eventParam);
 329:.\Generated_Source\PSoC4/BLE_eventHandler.c ****     }
 330:.\Generated_Source\PSoC4/BLE_eventHandler.c **** #endif /* CYBLE_HTS_SERVER */
 331:.\Generated_Source\PSoC4/BLE_eventHandler.c **** #ifdef CYBLE_LLS_SERVER
 332:.\Generated_Source\PSoC4/BLE_eventHandler.c ****     if(((cyBle_eventHandlerFlag & CYBLE_CALLBACK) != 0u) && (gattErr == CYBLE_GATT_ERR_NONE))
 333:.\Generated_Source\PSoC4/BLE_eventHandler.c ****     {
 334:.\Generated_Source\PSoC4/BLE_eventHandler.c ****         gattErr = CyBle_LlssWriteEventHandler(eventParam);
 335:.\Generated_Source\PSoC4/BLE_eventHandler.c ****     }
 336:.\Generated_Source\PSoC4/BLE_eventHandler.c **** #endif /* CYBLE_LLS_SERVER */
 337:.\Generated_Source\PSoC4/BLE_eventHandler.c **** #ifdef CYBLE_LNS_SERVER
 338:.\Generated_Source\PSoC4/BLE_eventHandler.c ****     if(((cyBle_eventHandlerFlag & CYBLE_CALLBACK) != 0u) && (gattErr == CYBLE_GATT_ERR_NONE))
 339:.\Generated_Source\PSoC4/BLE_eventHandler.c ****     {
 340:.\Generated_Source\PSoC4/BLE_eventHandler.c ****         gattErr = CyBle_LnssWriteEventHandler(eventParam);
 341:.\Generated_Source\PSoC4/BLE_eventHandler.c ****     }
ARM GAS  C:\Users\Kevin\AppData\Local\Temp\ccJ9qp0a.s 			page 8


 342:.\Generated_Source\PSoC4/BLE_eventHandler.c **** #endif /* CYBLE_LNS_SERVER */
 343:.\Generated_Source\PSoC4/BLE_eventHandler.c **** #ifdef CYBLE_PASS_SERVER
 344:.\Generated_Source\PSoC4/BLE_eventHandler.c ****     if(((cyBle_eventHandlerFlag & CYBLE_CALLBACK) != 0u) && (gattErr == CYBLE_GATT_ERR_NONE))
 345:.\Generated_Source\PSoC4/BLE_eventHandler.c ****     {
 346:.\Generated_Source\PSoC4/BLE_eventHandler.c ****         gattErr = CyBle_PasssWriteEventHandler(eventParam);
 347:.\Generated_Source\PSoC4/BLE_eventHandler.c ****     }
 348:.\Generated_Source\PSoC4/BLE_eventHandler.c **** #endif /* CYBLE_PASS_SERVER */
 349:.\Generated_Source\PSoC4/BLE_eventHandler.c **** #ifdef CYBLE_RSCS_SERVER
 350:.\Generated_Source\PSoC4/BLE_eventHandler.c ****     if(((cyBle_eventHandlerFlag & CYBLE_CALLBACK) != 0u) && (gattErr == CYBLE_GATT_ERR_NONE))
 351:.\Generated_Source\PSoC4/BLE_eventHandler.c ****     {
 352:.\Generated_Source\PSoC4/BLE_eventHandler.c ****         gattErr = CyBle_RscssWriteEventHandler(eventParam);
 353:.\Generated_Source\PSoC4/BLE_eventHandler.c ****     }
 354:.\Generated_Source\PSoC4/BLE_eventHandler.c **** #endif /* CYBLE_RSCS_SERVER */
 355:.\Generated_Source\PSoC4/BLE_eventHandler.c **** #ifdef CYBLE_SCPS_SERVER
 356:.\Generated_Source\PSoC4/BLE_eventHandler.c ****     if(((cyBle_eventHandlerFlag & CYBLE_CALLBACK) != 0u) && (gattErr == CYBLE_GATT_ERR_NONE))
 357:.\Generated_Source\PSoC4/BLE_eventHandler.c ****     {
 358:.\Generated_Source\PSoC4/BLE_eventHandler.c ****         gattErr = CyBle_ScpssWriteEventHandler(eventParam);
 359:.\Generated_Source\PSoC4/BLE_eventHandler.c ****     }
 360:.\Generated_Source\PSoC4/BLE_eventHandler.c **** #endif /* CYBLE_SCPS_SERVER */
 361:.\Generated_Source\PSoC4/BLE_eventHandler.c **** #ifdef CYBLE_TPS_SERVER
 362:.\Generated_Source\PSoC4/BLE_eventHandler.c ****     if(((cyBle_eventHandlerFlag & CYBLE_CALLBACK) != 0u) && (gattErr == CYBLE_GATT_ERR_NONE))
 363:.\Generated_Source\PSoC4/BLE_eventHandler.c ****     {
 364:.\Generated_Source\PSoC4/BLE_eventHandler.c ****         gattErr = CyBle_TpssWriteEventHandler(eventParam);
 365:.\Generated_Source\PSoC4/BLE_eventHandler.c ****     }
 366:.\Generated_Source\PSoC4/BLE_eventHandler.c **** #endif /* CYBLE_TPS_SERVER */
 367:.\Generated_Source\PSoC4/BLE_eventHandler.c **** #ifdef CYBLE_UDS_SERVER
 368:.\Generated_Source\PSoC4/BLE_eventHandler.c ****     if(((cyBle_eventHandlerFlag & CYBLE_CALLBACK) != 0u) && (gattErr == CYBLE_GATT_ERR_NONE))
 369:.\Generated_Source\PSoC4/BLE_eventHandler.c ****     {
 370:.\Generated_Source\PSoC4/BLE_eventHandler.c ****         gattErr = CyBle_UdssWriteEventHandler(eventParam);
 371:.\Generated_Source\PSoC4/BLE_eventHandler.c ****     }
 372:.\Generated_Source\PSoC4/BLE_eventHandler.c **** #endif /* CYBLE_UDS_SERVER */
 373:.\Generated_Source\PSoC4/BLE_eventHandler.c **** #ifdef CYBLE_WPTS_SERVER
 374:.\Generated_Source\PSoC4/BLE_eventHandler.c ****     if(((cyBle_eventHandlerFlag & CYBLE_CALLBACK) != 0u) && (gattErr == CYBLE_GATT_ERR_NONE))
 375:.\Generated_Source\PSoC4/BLE_eventHandler.c ****     {
 376:.\Generated_Source\PSoC4/BLE_eventHandler.c ****         gattErr = CyBle_WptssWriteEventHandler(eventParam);
 377:.\Generated_Source\PSoC4/BLE_eventHandler.c ****     }
 378:.\Generated_Source\PSoC4/BLE_eventHandler.c **** #endif /* CYBLE_WPTS_SERVER */
 379:.\Generated_Source\PSoC4/BLE_eventHandler.c **** #ifdef CYBLE_WSS_SERVER
 380:.\Generated_Source\PSoC4/BLE_eventHandler.c ****     if(((cyBle_eventHandlerFlag & CYBLE_CALLBACK) != 0u) && (gattErr == CYBLE_GATT_ERR_NONE))
 381:.\Generated_Source\PSoC4/BLE_eventHandler.c ****     {
 382:.\Generated_Source\PSoC4/BLE_eventHandler.c ****         gattErr = CyBle_WsssWriteEventHandler(eventParam);
 383:.\Generated_Source\PSoC4/BLE_eventHandler.c ****     }
 384:.\Generated_Source\PSoC4/BLE_eventHandler.c **** #endif /* CYBLE_WSS_SERVER */
 385:.\Generated_Source\PSoC4/BLE_eventHandler.c **** 
 386:.\Generated_Source\PSoC4/BLE_eventHandler.c ****     /* Send response when event was handled by service */
 387:.\Generated_Source\PSoC4/BLE_eventHandler.c ****     if((cyBle_eventHandlerFlag & CYBLE_CALLBACK) == 0u)
  59              		.loc 1 387 0
  60 0018 144B     		ldr	r3, .L4
  61 001a 1B78     		ldrb	r3, [r3]
  62 001c DBB2     		uxtb	r3, r3
  63 001e 1A1C     		mov	r2, r3
  64 0020 0123     		mov	r3, #1
  65 0022 1340     		and	r3, r2
  66 0024 1FD1     		bne	.L1
 388:.\Generated_Source\PSoC4/BLE_eventHandler.c ****     {
 389:.\Generated_Source\PSoC4/BLE_eventHandler.c ****         if(gattErr != CYBLE_GATT_ERR_NONE)
  67              		.loc 1 389 0
ARM GAS  C:\Users\Kevin\AppData\Local\Temp\ccJ9qp0a.s 			page 9


  68 0026 0F23     		mov	r3, #15
  69 0028 FB18     		add	r3, r7, r3
  70 002a 1B78     		ldrb	r3, [r3]
  71 002c 002B     		cmp	r3, #0
  72 002e 16D0     		beq	.L3
  73              	.LBB2:
 390:.\Generated_Source\PSoC4/BLE_eventHandler.c ****         {
 391:.\Generated_Source\PSoC4/BLE_eventHandler.c ****             CYBLE_GATTS_ERR_PARAM_T err_param;
 392:.\Generated_Source\PSoC4/BLE_eventHandler.c ****             
 393:.\Generated_Source\PSoC4/BLE_eventHandler.c ****             err_param.opcode = (uint8) CYBLE_GATT_WRITE_REQ;
  74              		.loc 1 393 0
  75 0030 0823     		mov	r3, #8
  76 0032 FB18     		add	r3, r7, r3
  77 0034 1222     		mov	r2, #18
  78 0036 9A70     		strb	r2, [r3, #2]
 394:.\Generated_Source\PSoC4/BLE_eventHandler.c ****             err_param.attrHandle = eventParam->handleValPair.attrHandle;
  79              		.loc 1 394 0
  80 0038 7B68     		ldr	r3, [r7, #4]
  81 003a 9A89     		ldrh	r2, [r3, #12]
  82 003c 0823     		mov	r3, #8
  83 003e FB18     		add	r3, r7, r3
  84 0040 1A80     		strh	r2, [r3]
 395:.\Generated_Source\PSoC4/BLE_eventHandler.c ****             err_param.errorCode = gattErr;
  85              		.loc 1 395 0
  86 0042 0823     		mov	r3, #8
  87 0044 FB18     		add	r3, r7, r3
  88 0046 0F22     		mov	r2, #15
  89 0048 BA18     		add	r2, r7, r2
  90 004a 1278     		ldrb	r2, [r2]
  91 004c DA70     		strb	r2, [r3, #3]
 396:.\Generated_Source\PSoC4/BLE_eventHandler.c **** 
 397:.\Generated_Source\PSoC4/BLE_eventHandler.c ****             /* Send Error Response */
 398:.\Generated_Source\PSoC4/BLE_eventHandler.c ****             (void)CyBle_GattsErrorRsp(eventParam->connHandle, &err_param);
  92              		.loc 1 398 0
  93 004e 7B68     		ldr	r3, [r7, #4]
  94 0050 0822     		mov	r2, #8
  95 0052 BA18     		add	r2, r7, r2
  96 0054 1868     		ldr	r0, [r3]
  97 0056 111C     		mov	r1, r2
  98 0058 FFF7FEFF 		bl	CyBle_GattsErrorRsp
  99              	.LBE2:
 100 005c 03E0     		b	.L1
 101              	.L3:
 399:.\Generated_Source\PSoC4/BLE_eventHandler.c ****         }
 400:.\Generated_Source\PSoC4/BLE_eventHandler.c ****         else
 401:.\Generated_Source\PSoC4/BLE_eventHandler.c ****         {
 402:.\Generated_Source\PSoC4/BLE_eventHandler.c ****             (void)CyBle_GattsWriteRsp(eventParam->connHandle);
 102              		.loc 1 402 0
 103 005e 7B68     		ldr	r3, [r7, #4]
 104 0060 1868     		ldr	r0, [r3]
 105 0062 FFF7FEFF 		bl	CyBle_GattsWriteRsp
 106              	.L1:
 403:.\Generated_Source\PSoC4/BLE_eventHandler.c ****         }
 404:.\Generated_Source\PSoC4/BLE_eventHandler.c ****     }
 405:.\Generated_Source\PSoC4/BLE_eventHandler.c **** }
 107              		.loc 1 405 0
 108 0066 BD46     		mov	sp, r7
ARM GAS  C:\Users\Kevin\AppData\Local\Temp\ccJ9qp0a.s 			page 10


 109 0068 05B0     		add	sp, sp, #20
 110              		@ sp needed
 111 006a 90BD     		pop	{r4, r7, pc}
 112              	.L5:
 113              		.align	2
 114              	.L4:
 115 006c 00000000 		.word	cyBle_eventHandlerFlag
 116              		.cfi_endproc
 117              	.LFE2:
 118              		.size	CyBle_WriteReqHandler, .-CyBle_WriteReqHandler
 119              		.section	.text.CyBle_ValueConfirmation,"ax",%progbits
 120              		.align	2
 121              		.code	16
 122              		.thumb_func
 123              		.type	CyBle_ValueConfirmation, %function
 124              	CyBle_ValueConfirmation:
 125              	.LFB3:
 406:.\Generated_Source\PSoC4/BLE_eventHandler.c **** 
 407:.\Generated_Source\PSoC4/BLE_eventHandler.c **** 
 408:.\Generated_Source\PSoC4/BLE_eventHandler.c **** /****************************************************************************** 
 409:.\Generated_Source\PSoC4/BLE_eventHandler.c **** * Function Name: CyBle_ValueConfirmation
 410:.\Generated_Source\PSoC4/BLE_eventHandler.c **** ***************************************************************************//**
 411:.\Generated_Source\PSoC4/BLE_eventHandler.c **** * 
 412:.\Generated_Source\PSoC4/BLE_eventHandler.c **** *  Handles the Value Confirmation request event from the BLE stack.
 413:.\Generated_Source\PSoC4/BLE_eventHandler.c **** * 
 414:.\Generated_Source\PSoC4/BLE_eventHandler.c **** *  CYBLE_CONN_HANDLE_T *eventParam - Pointer to a structure
 415:.\Generated_Source\PSoC4/BLE_eventHandler.c **** *     of type 'CYBLE_CONN_HANDLE_T'
 416:.\Generated_Source\PSoC4/BLE_eventHandler.c **** * 
 417:.\Generated_Source\PSoC4/BLE_eventHandler.c **** * \return
 418:.\Generated_Source\PSoC4/BLE_eventHandler.c **** *  None
 419:.\Generated_Source\PSoC4/BLE_eventHandler.c **** * 
 420:.\Generated_Source\PSoC4/BLE_eventHandler.c **** ******************************************************************************/
 421:.\Generated_Source\PSoC4/BLE_eventHandler.c **** static void CyBle_ValueConfirmation(const CYBLE_CONN_HANDLE_T *eventParam)
 422:.\Generated_Source\PSoC4/BLE_eventHandler.c **** {
 126              		.loc 1 422 0
 127              		.cfi_startproc
 128 0000 80B5     		push	{r7, lr}
 129              		.cfi_def_cfa_offset 8
 130              		.cfi_offset 7, -8
 131              		.cfi_offset 14, -4
 132 0002 82B0     		sub	sp, sp, #8
 133              		.cfi_def_cfa_offset 16
 134 0004 00AF     		add	r7, sp, #0
 135              		.cfi_def_cfa_register 7
 136 0006 7860     		str	r0, [r7, #4]
 423:.\Generated_Source\PSoC4/BLE_eventHandler.c ****     if(eventParam != NULL)
 424:.\Generated_Source\PSoC4/BLE_eventHandler.c ****     {
 425:.\Generated_Source\PSoC4/BLE_eventHandler.c ****     #ifdef CYBLE_BCS_SERVER
 426:.\Generated_Source\PSoC4/BLE_eventHandler.c ****         CyBle_BcssConfirmationEventHandler(eventParam);
 427:.\Generated_Source\PSoC4/BLE_eventHandler.c ****     #endif /* CYBLE_BCS_SERVER */
 428:.\Generated_Source\PSoC4/BLE_eventHandler.c ****     #ifdef CYBLE_BLS_SERVER
 429:.\Generated_Source\PSoC4/BLE_eventHandler.c ****         if((cyBle_eventHandlerFlag & CYBLE_CALLBACK) != 0u)
 430:.\Generated_Source\PSoC4/BLE_eventHandler.c ****         {
 431:.\Generated_Source\PSoC4/BLE_eventHandler.c ****             CyBle_BlssConfirmationEventHandler(eventParam);
 432:.\Generated_Source\PSoC4/BLE_eventHandler.c ****         }
 433:.\Generated_Source\PSoC4/BLE_eventHandler.c ****     #endif /* CYBLE_BLS_SERVER */
 434:.\Generated_Source\PSoC4/BLE_eventHandler.c ****     
ARM GAS  C:\Users\Kevin\AppData\Local\Temp\ccJ9qp0a.s 			page 11


 435:.\Generated_Source\PSoC4/BLE_eventHandler.c ****     #ifdef CYBLE_CGMS_SERVER
 436:.\Generated_Source\PSoC4/BLE_eventHandler.c ****         if((cyBle_eventHandlerFlag & CYBLE_CALLBACK) != 0u)
 437:.\Generated_Source\PSoC4/BLE_eventHandler.c ****         {
 438:.\Generated_Source\PSoC4/BLE_eventHandler.c ****             CyBle_CgmssConfirmationEventHandler(eventParam);
 439:.\Generated_Source\PSoC4/BLE_eventHandler.c ****         }
 440:.\Generated_Source\PSoC4/BLE_eventHandler.c ****     #endif /* CYBLE_CGMS_SERVER */
 441:.\Generated_Source\PSoC4/BLE_eventHandler.c ****     
 442:.\Generated_Source\PSoC4/BLE_eventHandler.c ****     #ifdef CYBLE_CPS_SERVER
 443:.\Generated_Source\PSoC4/BLE_eventHandler.c ****         if((cyBle_eventHandlerFlag & CYBLE_CALLBACK) != 0u)
 444:.\Generated_Source\PSoC4/BLE_eventHandler.c ****         {
 445:.\Generated_Source\PSoC4/BLE_eventHandler.c ****             CyBle_CpssConfirmationEventHandler(eventParam);
 446:.\Generated_Source\PSoC4/BLE_eventHandler.c ****         }
 447:.\Generated_Source\PSoC4/BLE_eventHandler.c ****     #endif /* CYBLE_CPS_SERVER */
 448:.\Generated_Source\PSoC4/BLE_eventHandler.c ****     
 449:.\Generated_Source\PSoC4/BLE_eventHandler.c ****     #ifdef CYBLE_CSCS_SERVER
 450:.\Generated_Source\PSoC4/BLE_eventHandler.c ****         if((cyBle_eventHandlerFlag & CYBLE_CALLBACK) != 0u)
 451:.\Generated_Source\PSoC4/BLE_eventHandler.c ****         {
 452:.\Generated_Source\PSoC4/BLE_eventHandler.c ****             CyBle_CscssConfirmationEventHandler(eventParam);
 453:.\Generated_Source\PSoC4/BLE_eventHandler.c ****         }
 454:.\Generated_Source\PSoC4/BLE_eventHandler.c ****     #endif /* CYBLE_CSCS_SERVER */
 455:.\Generated_Source\PSoC4/BLE_eventHandler.c ****     
 456:.\Generated_Source\PSoC4/BLE_eventHandler.c ****     #ifdef CYBLE_ESS_SERVER
 457:.\Generated_Source\PSoC4/BLE_eventHandler.c ****         if((cyBle_eventHandlerFlag & CYBLE_CALLBACK) != 0u)
 458:.\Generated_Source\PSoC4/BLE_eventHandler.c ****         {
 459:.\Generated_Source\PSoC4/BLE_eventHandler.c ****             CyBle_EsssConfirmationEventHandler(eventParam);
 460:.\Generated_Source\PSoC4/BLE_eventHandler.c ****         }
 461:.\Generated_Source\PSoC4/BLE_eventHandler.c ****     #endif /* CYBLE_ESS_SERVER */
 462:.\Generated_Source\PSoC4/BLE_eventHandler.c ****     
 463:.\Generated_Source\PSoC4/BLE_eventHandler.c ****     #ifdef CYBLE_GLS_SERVER
 464:.\Generated_Source\PSoC4/BLE_eventHandler.c ****         if((cyBle_eventHandlerFlag & CYBLE_CALLBACK) != 0u)
 465:.\Generated_Source\PSoC4/BLE_eventHandler.c ****         {
 466:.\Generated_Source\PSoC4/BLE_eventHandler.c ****             CyBle_GlssConfirmationEventHandler(eventParam);
 467:.\Generated_Source\PSoC4/BLE_eventHandler.c ****         }
 468:.\Generated_Source\PSoC4/BLE_eventHandler.c ****     #endif /* CYBLE_GLS_SERVER */
 469:.\Generated_Source\PSoC4/BLE_eventHandler.c ****     
 470:.\Generated_Source\PSoC4/BLE_eventHandler.c ****     #ifdef CYBLE_HTS_SERVER
 471:.\Generated_Source\PSoC4/BLE_eventHandler.c ****         if((cyBle_eventHandlerFlag & CYBLE_CALLBACK) != 0u)
 472:.\Generated_Source\PSoC4/BLE_eventHandler.c ****         {
 473:.\Generated_Source\PSoC4/BLE_eventHandler.c ****             CyBle_HtssConfirmationEventHandler(eventParam);
 474:.\Generated_Source\PSoC4/BLE_eventHandler.c ****         }
 475:.\Generated_Source\PSoC4/BLE_eventHandler.c ****     #endif /* CYBLE_HTS_SERVER */
 476:.\Generated_Source\PSoC4/BLE_eventHandler.c **** 
 477:.\Generated_Source\PSoC4/BLE_eventHandler.c ****     #ifdef CYBLE_LNS_SERVER
 478:.\Generated_Source\PSoC4/BLE_eventHandler.c ****         if((cyBle_eventHandlerFlag & CYBLE_CALLBACK) != 0u)
 479:.\Generated_Source\PSoC4/BLE_eventHandler.c ****         {
 480:.\Generated_Source\PSoC4/BLE_eventHandler.c ****             CyBle_LnssConfirmationEventHandler(eventParam);
 481:.\Generated_Source\PSoC4/BLE_eventHandler.c ****         }
 482:.\Generated_Source\PSoC4/BLE_eventHandler.c ****     #endif /* CYBLE_LNS_SERVER */
 483:.\Generated_Source\PSoC4/BLE_eventHandler.c ****     
 484:.\Generated_Source\PSoC4/BLE_eventHandler.c ****     #ifdef CYBLE_RSCS_SERVER
 485:.\Generated_Source\PSoC4/BLE_eventHandler.c ****         if((cyBle_eventHandlerFlag & CYBLE_CALLBACK) != 0u)
 486:.\Generated_Source\PSoC4/BLE_eventHandler.c ****         {
 487:.\Generated_Source\PSoC4/BLE_eventHandler.c ****             CyBle_RscssConfirmationEventHandler(eventParam);
 488:.\Generated_Source\PSoC4/BLE_eventHandler.c ****         }
 489:.\Generated_Source\PSoC4/BLE_eventHandler.c ****     #endif /* CYBLE_RSCS_SERVER */
 490:.\Generated_Source\PSoC4/BLE_eventHandler.c ****     
 491:.\Generated_Source\PSoC4/BLE_eventHandler.c ****     #ifdef CYBLE_UDS_SERVER
ARM GAS  C:\Users\Kevin\AppData\Local\Temp\ccJ9qp0a.s 			page 12


 492:.\Generated_Source\PSoC4/BLE_eventHandler.c ****         if((cyBle_eventHandlerFlag & CYBLE_CALLBACK) != 0u)
 493:.\Generated_Source\PSoC4/BLE_eventHandler.c ****         {
 494:.\Generated_Source\PSoC4/BLE_eventHandler.c ****             CyBle_UdssConfirmationEventHandler(eventParam);
 495:.\Generated_Source\PSoC4/BLE_eventHandler.c ****         }
 496:.\Generated_Source\PSoC4/BLE_eventHandler.c ****     #endif /* CYBLE_UDS_SERVER */
 497:.\Generated_Source\PSoC4/BLE_eventHandler.c ****     
 498:.\Generated_Source\PSoC4/BLE_eventHandler.c ****     #ifdef CYBLE_WPTS_SERVER
 499:.\Generated_Source\PSoC4/BLE_eventHandler.c ****         if((cyBle_eventHandlerFlag & CYBLE_CALLBACK) != 0u)
 500:.\Generated_Source\PSoC4/BLE_eventHandler.c ****         {
 501:.\Generated_Source\PSoC4/BLE_eventHandler.c ****             CyBle_WptssConfirmationEventHandler(eventParam);
 502:.\Generated_Source\PSoC4/BLE_eventHandler.c ****         }
 503:.\Generated_Source\PSoC4/BLE_eventHandler.c ****     #endif /* CYBLE_WPTS_SERVER */
 504:.\Generated_Source\PSoC4/BLE_eventHandler.c ****     
 505:.\Generated_Source\PSoC4/BLE_eventHandler.c ****     #ifdef CYBLE_WSS_SERVER
 506:.\Generated_Source\PSoC4/BLE_eventHandler.c ****         if((cyBle_eventHandlerFlag & CYBLE_CALLBACK) != 0u)
 507:.\Generated_Source\PSoC4/BLE_eventHandler.c ****         {
 508:.\Generated_Source\PSoC4/BLE_eventHandler.c ****             CyBle_WsssConfirmationEventHandler(eventParam);
 509:.\Generated_Source\PSoC4/BLE_eventHandler.c ****         }
 510:.\Generated_Source\PSoC4/BLE_eventHandler.c ****     #endif /* CYBLE_WSS_SERVER */
 511:.\Generated_Source\PSoC4/BLE_eventHandler.c ****     }
 512:.\Generated_Source\PSoC4/BLE_eventHandler.c **** }
 137              		.loc 1 512 0
 138 0008 BD46     		mov	sp, r7
 139 000a 02B0     		add	sp, sp, #8
 140              		@ sp needed
 141 000c 80BD     		pop	{r7, pc}
 142              		.cfi_endproc
 143              	.LFE3:
 144              		.size	CyBle_ValueConfirmation, .-CyBle_ValueConfirmation
 145              		.section	.text.CyBle_GattDisconnectEventHandler,"ax",%progbits
 146              		.align	2
 147              		.code	16
 148              		.thumb_func
 149              		.type	CyBle_GattDisconnectEventHandler, %function
 150              	CyBle_GattDisconnectEventHandler:
 151              	.LFB4:
 513:.\Generated_Source\PSoC4/BLE_eventHandler.c **** 
 514:.\Generated_Source\PSoC4/BLE_eventHandler.c **** #endif /* CYBLE_GATT_ROLE_SERVER */
 515:.\Generated_Source\PSoC4/BLE_eventHandler.c **** 
 516:.\Generated_Source\PSoC4/BLE_eventHandler.c **** 
 517:.\Generated_Source\PSoC4/BLE_eventHandler.c **** #if (CYBLE_GATT_ROLE_CLIENT)
 518:.\Generated_Source\PSoC4/BLE_eventHandler.c **** 
 519:.\Generated_Source\PSoC4/BLE_eventHandler.c **** /****************************************************************************** 
 520:.\Generated_Source\PSoC4/BLE_eventHandler.c **** * Function Name: CyBle_GattcWriteResponseEventHandler
 521:.\Generated_Source\PSoC4/BLE_eventHandler.c **** ***************************************************************************//**
 522:.\Generated_Source\PSoC4/BLE_eventHandler.c **** * 
 523:.\Generated_Source\PSoC4/BLE_eventHandler.c **** *  Handles the Write response event from the BLE stack.
 524:.\Generated_Source\PSoC4/BLE_eventHandler.c **** * 
 525:.\Generated_Source\PSoC4/BLE_eventHandler.c **** *  CYBLE_CONN_HANDLE_T *eventParam - Pointer to a structure
 526:.\Generated_Source\PSoC4/BLE_eventHandler.c **** *     of type 'CYBLE_CONN_HANDLE_T'
 527:.\Generated_Source\PSoC4/BLE_eventHandler.c **** * 
 528:.\Generated_Source\PSoC4/BLE_eventHandler.c **** * \return
 529:.\Generated_Source\PSoC4/BLE_eventHandler.c **** *  None
 530:.\Generated_Source\PSoC4/BLE_eventHandler.c **** * 
 531:.\Generated_Source\PSoC4/BLE_eventHandler.c **** ******************************************************************************/
 532:.\Generated_Source\PSoC4/BLE_eventHandler.c **** static void CyBle_GattcWriteResponseEventHandler(const CYBLE_CONN_HANDLE_T *eventParam)
 533:.\Generated_Source\PSoC4/BLE_eventHandler.c **** {
ARM GAS  C:\Users\Kevin\AppData\Local\Temp\ccJ9qp0a.s 			page 13


 534:.\Generated_Source\PSoC4/BLE_eventHandler.c **** #ifdef CYBLE_ANCS_CLIENT
 535:.\Generated_Source\PSoC4/BLE_eventHandler.c ****     CyBle_AncscWriteResponseEventHandler(eventParam);
 536:.\Generated_Source\PSoC4/BLE_eventHandler.c **** #endif /* CYBLE_ANCS_CLIENT */
 537:.\Generated_Source\PSoC4/BLE_eventHandler.c **** 
 538:.\Generated_Source\PSoC4/BLE_eventHandler.c **** #ifdef CYBLE_ANS_CLIENT
 539:.\Generated_Source\PSoC4/BLE_eventHandler.c ****     if((cyBle_eventHandlerFlag & CYBLE_CALLBACK) != 0u)
 540:.\Generated_Source\PSoC4/BLE_eventHandler.c ****     {
 541:.\Generated_Source\PSoC4/BLE_eventHandler.c ****         CyBle_AnscWriteResponseEventHandler(eventParam);
 542:.\Generated_Source\PSoC4/BLE_eventHandler.c ****     }
 543:.\Generated_Source\PSoC4/BLE_eventHandler.c **** #endif /* CYBLE_ANS_CLIENT */
 544:.\Generated_Source\PSoC4/BLE_eventHandler.c **** 
 545:.\Generated_Source\PSoC4/BLE_eventHandler.c **** #ifdef CYBLE_BAS_CLIENT
 546:.\Generated_Source\PSoC4/BLE_eventHandler.c ****     if((cyBle_eventHandlerFlag & CYBLE_CALLBACK) != 0u)
 547:.\Generated_Source\PSoC4/BLE_eventHandler.c ****     {
 548:.\Generated_Source\PSoC4/BLE_eventHandler.c ****         CyBle_BascWriteResponseEventHandler(eventParam);
 549:.\Generated_Source\PSoC4/BLE_eventHandler.c ****     }
 550:.\Generated_Source\PSoC4/BLE_eventHandler.c **** #endif /* CYBLE_BAS_CLIENT */
 551:.\Generated_Source\PSoC4/BLE_eventHandler.c **** 
 552:.\Generated_Source\PSoC4/BLE_eventHandler.c **** #ifdef CYBLE_BCS_CLIENT
 553:.\Generated_Source\PSoC4/BLE_eventHandler.c ****     if((cyBle_eventHandlerFlag & CYBLE_CALLBACK) != 0u)
 554:.\Generated_Source\PSoC4/BLE_eventHandler.c ****     {
 555:.\Generated_Source\PSoC4/BLE_eventHandler.c ****         CyBle_BcscWriteResponseEventHandler(eventParam);
 556:.\Generated_Source\PSoC4/BLE_eventHandler.c ****     }
 557:.\Generated_Source\PSoC4/BLE_eventHandler.c **** #endif /* CYBLE_BCS_CLIENT */
 558:.\Generated_Source\PSoC4/BLE_eventHandler.c **** 
 559:.\Generated_Source\PSoC4/BLE_eventHandler.c **** #ifdef CYBLE_BLS_CLIENT
 560:.\Generated_Source\PSoC4/BLE_eventHandler.c ****     if((cyBle_eventHandlerFlag & CYBLE_CALLBACK) != 0u)
 561:.\Generated_Source\PSoC4/BLE_eventHandler.c ****     {
 562:.\Generated_Source\PSoC4/BLE_eventHandler.c ****         CyBle_BlscWriteResponseEventHandler(eventParam);
 563:.\Generated_Source\PSoC4/BLE_eventHandler.c ****     }
 564:.\Generated_Source\PSoC4/BLE_eventHandler.c **** #endif /* CYBLE_BLS_CLIENT */
 565:.\Generated_Source\PSoC4/BLE_eventHandler.c **** 
 566:.\Generated_Source\PSoC4/BLE_eventHandler.c **** #ifdef CYBLE_BMS_CLIENT
 567:.\Generated_Source\PSoC4/BLE_eventHandler.c ****     if((cyBle_eventHandlerFlag & CYBLE_CALLBACK) != 0u)
 568:.\Generated_Source\PSoC4/BLE_eventHandler.c ****     {
 569:.\Generated_Source\PSoC4/BLE_eventHandler.c ****         CyBle_BmscWriteResponseEventHandler(eventParam);
 570:.\Generated_Source\PSoC4/BLE_eventHandler.c ****     }
 571:.\Generated_Source\PSoC4/BLE_eventHandler.c **** #endif /* CYBLE_BMS_CLIENT */
 572:.\Generated_Source\PSoC4/BLE_eventHandler.c **** 
 573:.\Generated_Source\PSoC4/BLE_eventHandler.c **** #ifdef CYBLE_CGMS_CLIENT
 574:.\Generated_Source\PSoC4/BLE_eventHandler.c ****     if((cyBle_eventHandlerFlag & CYBLE_CALLBACK) != 0u)
 575:.\Generated_Source\PSoC4/BLE_eventHandler.c ****     {
 576:.\Generated_Source\PSoC4/BLE_eventHandler.c ****         CyBle_CgmscWriteResponseEventHandler(eventParam);
 577:.\Generated_Source\PSoC4/BLE_eventHandler.c ****     }
 578:.\Generated_Source\PSoC4/BLE_eventHandler.c **** #endif /* CYBLE_CGMS_CLIENT */
 579:.\Generated_Source\PSoC4/BLE_eventHandler.c **** 
 580:.\Generated_Source\PSoC4/BLE_eventHandler.c **** #ifdef CYBLE_CPS_CLIENT
 581:.\Generated_Source\PSoC4/BLE_eventHandler.c ****     if((cyBle_eventHandlerFlag & CYBLE_CALLBACK) != 0u)
 582:.\Generated_Source\PSoC4/BLE_eventHandler.c ****     {
 583:.\Generated_Source\PSoC4/BLE_eventHandler.c ****         CyBle_CpscWriteResponseEventHandler(eventParam);
 584:.\Generated_Source\PSoC4/BLE_eventHandler.c ****     }
 585:.\Generated_Source\PSoC4/BLE_eventHandler.c **** #endif /* CYBLE_CPS_CLIENT */
 586:.\Generated_Source\PSoC4/BLE_eventHandler.c **** 
 587:.\Generated_Source\PSoC4/BLE_eventHandler.c **** #ifdef CYBLE_CSCS_CLIENT
 588:.\Generated_Source\PSoC4/BLE_eventHandler.c ****     if((cyBle_eventHandlerFlag & CYBLE_CALLBACK) != 0u)
 589:.\Generated_Source\PSoC4/BLE_eventHandler.c ****     {
 590:.\Generated_Source\PSoC4/BLE_eventHandler.c ****         CyBle_CscscWriteResponseEventHandler(eventParam);
ARM GAS  C:\Users\Kevin\AppData\Local\Temp\ccJ9qp0a.s 			page 14


 591:.\Generated_Source\PSoC4/BLE_eventHandler.c ****     }
 592:.\Generated_Source\PSoC4/BLE_eventHandler.c **** #endif /* CYBLE_CSCS_CLIENT */
 593:.\Generated_Source\PSoC4/BLE_eventHandler.c **** 
 594:.\Generated_Source\PSoC4/BLE_eventHandler.c **** #ifdef CYBLE_CTS_CLIENT
 595:.\Generated_Source\PSoC4/BLE_eventHandler.c ****     if((cyBle_eventHandlerFlag & CYBLE_CALLBACK) != 0u)
 596:.\Generated_Source\PSoC4/BLE_eventHandler.c ****     {
 597:.\Generated_Source\PSoC4/BLE_eventHandler.c ****         CyBle_CtscWriteResponseEventHandler(eventParam);
 598:.\Generated_Source\PSoC4/BLE_eventHandler.c ****     }
 599:.\Generated_Source\PSoC4/BLE_eventHandler.c **** #endif /* CYBLE_CTS_CLIENT */
 600:.\Generated_Source\PSoC4/BLE_eventHandler.c **** 
 601:.\Generated_Source\PSoC4/BLE_eventHandler.c **** #ifdef CYBLE_ESS_CLIENT
 602:.\Generated_Source\PSoC4/BLE_eventHandler.c ****     if((cyBle_eventHandlerFlag & CYBLE_CALLBACK) != 0u)
 603:.\Generated_Source\PSoC4/BLE_eventHandler.c ****     {
 604:.\Generated_Source\PSoC4/BLE_eventHandler.c ****         CyBle_EsscWriteResponseEventHandler(eventParam);
 605:.\Generated_Source\PSoC4/BLE_eventHandler.c ****     }
 606:.\Generated_Source\PSoC4/BLE_eventHandler.c **** #endif /* CYBLE_ESS_CLIENT */
 607:.\Generated_Source\PSoC4/BLE_eventHandler.c **** 
 608:.\Generated_Source\PSoC4/BLE_eventHandler.c **** #ifdef CYBLE_GLS_CLIENT
 609:.\Generated_Source\PSoC4/BLE_eventHandler.c ****     if((cyBle_eventHandlerFlag & CYBLE_CALLBACK) != 0u)
 610:.\Generated_Source\PSoC4/BLE_eventHandler.c ****     {
 611:.\Generated_Source\PSoC4/BLE_eventHandler.c ****         CyBle_GlscWriteResponseEventHandler(eventParam);
 612:.\Generated_Source\PSoC4/BLE_eventHandler.c ****     }
 613:.\Generated_Source\PSoC4/BLE_eventHandler.c **** #endif /* CYBLE_GLS_CLIENT */
 614:.\Generated_Source\PSoC4/BLE_eventHandler.c **** 
 615:.\Generated_Source\PSoC4/BLE_eventHandler.c **** #ifdef CYBLE_HIDS_CLIENT
 616:.\Generated_Source\PSoC4/BLE_eventHandler.c ****     if((cyBle_eventHandlerFlag & CYBLE_CALLBACK) != 0u)
 617:.\Generated_Source\PSoC4/BLE_eventHandler.c ****     {
 618:.\Generated_Source\PSoC4/BLE_eventHandler.c ****         CyBle_HidscWriteResponseEventHandler(eventParam);
 619:.\Generated_Source\PSoC4/BLE_eventHandler.c ****     }
 620:.\Generated_Source\PSoC4/BLE_eventHandler.c **** #endif /* CYBLE_HIDS_CLIENT */
 621:.\Generated_Source\PSoC4/BLE_eventHandler.c **** 
 622:.\Generated_Source\PSoC4/BLE_eventHandler.c **** #ifdef CYBLE_HRS_CLIENT
 623:.\Generated_Source\PSoC4/BLE_eventHandler.c ****     if((cyBle_eventHandlerFlag & CYBLE_CALLBACK) != 0u)
 624:.\Generated_Source\PSoC4/BLE_eventHandler.c ****     {
 625:.\Generated_Source\PSoC4/BLE_eventHandler.c ****         CyBle_HrscWriteResponseEventHandler(eventParam);
 626:.\Generated_Source\PSoC4/BLE_eventHandler.c ****     }
 627:.\Generated_Source\PSoC4/BLE_eventHandler.c **** #endif /* CYBLE_HRS_CLIENT */
 628:.\Generated_Source\PSoC4/BLE_eventHandler.c **** 
 629:.\Generated_Source\PSoC4/BLE_eventHandler.c **** #ifdef CYBLE_HTS_CLIENT
 630:.\Generated_Source\PSoC4/BLE_eventHandler.c ****     if((cyBle_eventHandlerFlag & CYBLE_CALLBACK) != 0u)
 631:.\Generated_Source\PSoC4/BLE_eventHandler.c ****     {
 632:.\Generated_Source\PSoC4/BLE_eventHandler.c ****         CyBle_HtscWriteResponseEventHandler(eventParam);
 633:.\Generated_Source\PSoC4/BLE_eventHandler.c ****     }
 634:.\Generated_Source\PSoC4/BLE_eventHandler.c **** #endif /* CYBLE_HTS_CLIENT */
 635:.\Generated_Source\PSoC4/BLE_eventHandler.c **** 
 636:.\Generated_Source\PSoC4/BLE_eventHandler.c **** #ifdef CYBLE_LLS_CLIENT
 637:.\Generated_Source\PSoC4/BLE_eventHandler.c ****     if((cyBle_eventHandlerFlag & CYBLE_CALLBACK) != 0u)
 638:.\Generated_Source\PSoC4/BLE_eventHandler.c ****     {
 639:.\Generated_Source\PSoC4/BLE_eventHandler.c ****         CyBle_LlscWriteResponseEventHandler(eventParam);
 640:.\Generated_Source\PSoC4/BLE_eventHandler.c ****     }
 641:.\Generated_Source\PSoC4/BLE_eventHandler.c **** #endif /* CYBLE_LLS_CLIENT */
 642:.\Generated_Source\PSoC4/BLE_eventHandler.c **** 
 643:.\Generated_Source\PSoC4/BLE_eventHandler.c **** #ifdef CYBLE_LNS_CLIENT
 644:.\Generated_Source\PSoC4/BLE_eventHandler.c ****     if((cyBle_eventHandlerFlag & CYBLE_CALLBACK) != 0u)
 645:.\Generated_Source\PSoC4/BLE_eventHandler.c ****     {
 646:.\Generated_Source\PSoC4/BLE_eventHandler.c ****         CyBle_LnscWriteResponseEventHandler(eventParam);
 647:.\Generated_Source\PSoC4/BLE_eventHandler.c ****     }
ARM GAS  C:\Users\Kevin\AppData\Local\Temp\ccJ9qp0a.s 			page 15


 648:.\Generated_Source\PSoC4/BLE_eventHandler.c **** #endif /* CYBLE_LNS_CLIENT */
 649:.\Generated_Source\PSoC4/BLE_eventHandler.c **** 
 650:.\Generated_Source\PSoC4/BLE_eventHandler.c **** #ifdef CYBLE_PASS_CLIENT
 651:.\Generated_Source\PSoC4/BLE_eventHandler.c ****     if((cyBle_eventHandlerFlag & CYBLE_CALLBACK) != 0u)
 652:.\Generated_Source\PSoC4/BLE_eventHandler.c ****     {
 653:.\Generated_Source\PSoC4/BLE_eventHandler.c ****         CyBle_PasscWriteResponseEventHandler(eventParam);
 654:.\Generated_Source\PSoC4/BLE_eventHandler.c ****     }
 655:.\Generated_Source\PSoC4/BLE_eventHandler.c **** #endif /* CYBLE_PASS_CLIENT */
 656:.\Generated_Source\PSoC4/BLE_eventHandler.c **** 
 657:.\Generated_Source\PSoC4/BLE_eventHandler.c **** #ifdef CYBLE_RSCS_CLIENT
 658:.\Generated_Source\PSoC4/BLE_eventHandler.c ****     if((cyBle_eventHandlerFlag & CYBLE_CALLBACK) != 0u)
 659:.\Generated_Source\PSoC4/BLE_eventHandler.c ****     {
 660:.\Generated_Source\PSoC4/BLE_eventHandler.c ****         CyBle_RscscWriteResponseEventHandler(eventParam);
 661:.\Generated_Source\PSoC4/BLE_eventHandler.c ****     }
 662:.\Generated_Source\PSoC4/BLE_eventHandler.c **** #endif /* CYBLE_RSCS_CLIENT */
 663:.\Generated_Source\PSoC4/BLE_eventHandler.c **** 
 664:.\Generated_Source\PSoC4/BLE_eventHandler.c **** #ifdef CYBLE_SCPS_CLIENT
 665:.\Generated_Source\PSoC4/BLE_eventHandler.c ****     if((cyBle_eventHandlerFlag & CYBLE_CALLBACK) != 0u)
 666:.\Generated_Source\PSoC4/BLE_eventHandler.c ****     {
 667:.\Generated_Source\PSoC4/BLE_eventHandler.c ****         CyBle_ScpscWriteResponseEventHandler(eventParam);
 668:.\Generated_Source\PSoC4/BLE_eventHandler.c ****     }
 669:.\Generated_Source\PSoC4/BLE_eventHandler.c **** #endif /* CYBLE_SCPS_CLIENT */
 670:.\Generated_Source\PSoC4/BLE_eventHandler.c **** 
 671:.\Generated_Source\PSoC4/BLE_eventHandler.c **** #ifdef CYBLE_TPS_CLIENT
 672:.\Generated_Source\PSoC4/BLE_eventHandler.c ****     if((cyBle_eventHandlerFlag & CYBLE_CALLBACK) != 0u)
 673:.\Generated_Source\PSoC4/BLE_eventHandler.c ****     {
 674:.\Generated_Source\PSoC4/BLE_eventHandler.c ****         CyBle_TpscWriteResponseEventHandler(eventParam);
 675:.\Generated_Source\PSoC4/BLE_eventHandler.c ****     }
 676:.\Generated_Source\PSoC4/BLE_eventHandler.c **** #endif /* CYBLE_TPS_CLIENT */
 677:.\Generated_Source\PSoC4/BLE_eventHandler.c **** 
 678:.\Generated_Source\PSoC4/BLE_eventHandler.c **** #ifdef CYBLE_UDS_CLIENT
 679:.\Generated_Source\PSoC4/BLE_eventHandler.c ****     if((cyBle_eventHandlerFlag & CYBLE_CALLBACK) != 0u)
 680:.\Generated_Source\PSoC4/BLE_eventHandler.c ****     {
 681:.\Generated_Source\PSoC4/BLE_eventHandler.c ****         CyBle_UdscWriteResponseEventHandler(eventParam);
 682:.\Generated_Source\PSoC4/BLE_eventHandler.c ****     }
 683:.\Generated_Source\PSoC4/BLE_eventHandler.c **** #endif /* CYBLE_UDS_CLIENT */
 684:.\Generated_Source\PSoC4/BLE_eventHandler.c **** #ifdef CYBLE_WPTS_CLIENT
 685:.\Generated_Source\PSoC4/BLE_eventHandler.c ****     if((cyBle_eventHandlerFlag & CYBLE_CALLBACK) != 0u)
 686:.\Generated_Source\PSoC4/BLE_eventHandler.c ****     {
 687:.\Generated_Source\PSoC4/BLE_eventHandler.c ****         CyBle_WptscWriteResponseEventHandler(eventParam);
 688:.\Generated_Source\PSoC4/BLE_eventHandler.c ****     }
 689:.\Generated_Source\PSoC4/BLE_eventHandler.c **** #endif /* CYBLE_WPTS_CLIENT */
 690:.\Generated_Source\PSoC4/BLE_eventHandler.c **** #ifdef CYBLE_WSS_CLIENT
 691:.\Generated_Source\PSoC4/BLE_eventHandler.c ****     if((cyBle_eventHandlerFlag & CYBLE_CALLBACK) != 0u)
 692:.\Generated_Source\PSoC4/BLE_eventHandler.c ****     {
 693:.\Generated_Source\PSoC4/BLE_eventHandler.c ****         CyBle_WsscWriteResponseEventHandler(eventParam);
 694:.\Generated_Source\PSoC4/BLE_eventHandler.c ****     }
 695:.\Generated_Source\PSoC4/BLE_eventHandler.c **** #endif /* CYBLE_WSS_CLIENT */
 696:.\Generated_Source\PSoC4/BLE_eventHandler.c **** }
 697:.\Generated_Source\PSoC4/BLE_eventHandler.c **** 
 698:.\Generated_Source\PSoC4/BLE_eventHandler.c **** 
 699:.\Generated_Source\PSoC4/BLE_eventHandler.c **** /******************************************************************************    
 700:.\Generated_Source\PSoC4/BLE_eventHandler.c **** * Function Name: CyBle_NotificationEventHandler
 701:.\Generated_Source\PSoC4/BLE_eventHandler.c **** ***************************************************************************//**
 702:.\Generated_Source\PSoC4/BLE_eventHandler.c **** * 
 703:.\Generated_Source\PSoC4/BLE_eventHandler.c **** *  Handles the Notification event from BLE stack.
 704:.\Generated_Source\PSoC4/BLE_eventHandler.c **** * 
ARM GAS  C:\Users\Kevin\AppData\Local\Temp\ccJ9qp0a.s 			page 16


 705:.\Generated_Source\PSoC4/BLE_eventHandler.c **** *  CYBLE_GATTC_HANDLE_VALUE_NTF_PARAM_T * eventParam - event parameter
 706:.\Generated_Source\PSoC4/BLE_eventHandler.c **** * 
 707:.\Generated_Source\PSoC4/BLE_eventHandler.c **** * \return
 708:.\Generated_Source\PSoC4/BLE_eventHandler.c **** *  None
 709:.\Generated_Source\PSoC4/BLE_eventHandler.c **** * 
 710:.\Generated_Source\PSoC4/BLE_eventHandler.c **** ******************************************************************************/
 711:.\Generated_Source\PSoC4/BLE_eventHandler.c **** static void CyBle_NotificationEventHandler(CYBLE_GATTC_HANDLE_VALUE_NTF_PARAM_T *eventParam)
 712:.\Generated_Source\PSoC4/BLE_eventHandler.c **** {
 713:.\Generated_Source\PSoC4/BLE_eventHandler.c **** #ifdef CYBLE_ANCS_CLIENT
 714:.\Generated_Source\PSoC4/BLE_eventHandler.c ****     CyBle_AncscNotificationEventHandler(eventParam);
 715:.\Generated_Source\PSoC4/BLE_eventHandler.c **** #endif /* CYBLE_ANCS_CLIENT */
 716:.\Generated_Source\PSoC4/BLE_eventHandler.c **** #ifdef CYBLE_ANS_CLIENT
 717:.\Generated_Source\PSoC4/BLE_eventHandler.c ****     if((cyBle_eventHandlerFlag & CYBLE_CALLBACK) != 0u)
 718:.\Generated_Source\PSoC4/BLE_eventHandler.c ****     {
 719:.\Generated_Source\PSoC4/BLE_eventHandler.c ****         CyBle_AnscNotificationEventHandler(eventParam);
 720:.\Generated_Source\PSoC4/BLE_eventHandler.c ****     }
 721:.\Generated_Source\PSoC4/BLE_eventHandler.c **** #endif /* CYBLE_ANS_CLIENT */
 722:.\Generated_Source\PSoC4/BLE_eventHandler.c **** #ifdef CYBLE_BAS_CLIENT
 723:.\Generated_Source\PSoC4/BLE_eventHandler.c ****     if((cyBle_eventHandlerFlag & CYBLE_CALLBACK) != 0u)
 724:.\Generated_Source\PSoC4/BLE_eventHandler.c ****     {
 725:.\Generated_Source\PSoC4/BLE_eventHandler.c ****         CyBle_BascNotificationEventHandler(eventParam);
 726:.\Generated_Source\PSoC4/BLE_eventHandler.c ****     }
 727:.\Generated_Source\PSoC4/BLE_eventHandler.c **** #endif /* CYBLE_BAS_CLIENT */
 728:.\Generated_Source\PSoC4/BLE_eventHandler.c **** #ifdef CYBLE_BLS_CLIENT
 729:.\Generated_Source\PSoC4/BLE_eventHandler.c ****     if((cyBle_eventHandlerFlag & CYBLE_CALLBACK) != 0u)
 730:.\Generated_Source\PSoC4/BLE_eventHandler.c ****     {
 731:.\Generated_Source\PSoC4/BLE_eventHandler.c ****         CyBle_BlscNotificationEventHandler(eventParam);
 732:.\Generated_Source\PSoC4/BLE_eventHandler.c ****     }
 733:.\Generated_Source\PSoC4/BLE_eventHandler.c **** #endif /* CYBLE_BLS_CLIENT */
 734:.\Generated_Source\PSoC4/BLE_eventHandler.c **** #ifdef CYBLE_CGMS_CLIENT
 735:.\Generated_Source\PSoC4/BLE_eventHandler.c ****     if((cyBle_eventHandlerFlag & CYBLE_CALLBACK) != 0u)
 736:.\Generated_Source\PSoC4/BLE_eventHandler.c ****     {
 737:.\Generated_Source\PSoC4/BLE_eventHandler.c ****         CyBle_CgmscNotificationEventHandler(eventParam);
 738:.\Generated_Source\PSoC4/BLE_eventHandler.c ****     }
 739:.\Generated_Source\PSoC4/BLE_eventHandler.c **** #endif /* CYBLE_CGMS_CLIENT */
 740:.\Generated_Source\PSoC4/BLE_eventHandler.c **** #ifdef CYBLE_CPS_CLIENT
 741:.\Generated_Source\PSoC4/BLE_eventHandler.c ****     if((cyBle_eventHandlerFlag & CYBLE_CALLBACK) != 0u)
 742:.\Generated_Source\PSoC4/BLE_eventHandler.c ****     {
 743:.\Generated_Source\PSoC4/BLE_eventHandler.c ****         CyBle_CpscNotificationEventHandler(eventParam);
 744:.\Generated_Source\PSoC4/BLE_eventHandler.c ****     }
 745:.\Generated_Source\PSoC4/BLE_eventHandler.c **** #endif /* CYBLE_CPS_CLIENT */
 746:.\Generated_Source\PSoC4/BLE_eventHandler.c **** #ifdef CYBLE_CSCS_CLIENT
 747:.\Generated_Source\PSoC4/BLE_eventHandler.c ****     if((cyBle_eventHandlerFlag & CYBLE_CALLBACK) != 0u)
 748:.\Generated_Source\PSoC4/BLE_eventHandler.c ****     {
 749:.\Generated_Source\PSoC4/BLE_eventHandler.c ****         CyBle_CscscNotificationEventHandler(eventParam);
 750:.\Generated_Source\PSoC4/BLE_eventHandler.c ****     }
 751:.\Generated_Source\PSoC4/BLE_eventHandler.c **** #endif /* CYBLE_CSCS_CLIENT */
 752:.\Generated_Source\PSoC4/BLE_eventHandler.c **** #ifdef CYBLE_CTS_CLIENT
 753:.\Generated_Source\PSoC4/BLE_eventHandler.c ****     if((cyBle_eventHandlerFlag & CYBLE_CALLBACK) != 0u)
 754:.\Generated_Source\PSoC4/BLE_eventHandler.c ****     {
 755:.\Generated_Source\PSoC4/BLE_eventHandler.c ****         CyBle_CtscNotificationEventHandler(eventParam);
 756:.\Generated_Source\PSoC4/BLE_eventHandler.c ****     }
 757:.\Generated_Source\PSoC4/BLE_eventHandler.c **** #endif /* CYBLE_CTS_CLIENT */
 758:.\Generated_Source\PSoC4/BLE_eventHandler.c **** #ifdef CYBLE_ESS_CLIENT
 759:.\Generated_Source\PSoC4/BLE_eventHandler.c ****     if((cyBle_eventHandlerFlag & CYBLE_CALLBACK) != 0u)
 760:.\Generated_Source\PSoC4/BLE_eventHandler.c ****     {
 761:.\Generated_Source\PSoC4/BLE_eventHandler.c ****         CyBle_EsscNotificationEventHandler(eventParam);
ARM GAS  C:\Users\Kevin\AppData\Local\Temp\ccJ9qp0a.s 			page 17


 762:.\Generated_Source\PSoC4/BLE_eventHandler.c ****     }
 763:.\Generated_Source\PSoC4/BLE_eventHandler.c **** #endif /* CYBLE_ESS_CLIENT */
 764:.\Generated_Source\PSoC4/BLE_eventHandler.c **** #ifdef CYBLE_GLS_CLIENT
 765:.\Generated_Source\PSoC4/BLE_eventHandler.c ****     if((cyBle_eventHandlerFlag & CYBLE_CALLBACK) != 0u)
 766:.\Generated_Source\PSoC4/BLE_eventHandler.c ****     {
 767:.\Generated_Source\PSoC4/BLE_eventHandler.c ****         CyBle_GlscNotificationEventHandler(eventParam);
 768:.\Generated_Source\PSoC4/BLE_eventHandler.c ****     }
 769:.\Generated_Source\PSoC4/BLE_eventHandler.c **** #endif /* CYBLE_GLS_CLIENT */
 770:.\Generated_Source\PSoC4/BLE_eventHandler.c **** #ifdef CYBLE_HIDS_CLIENT
 771:.\Generated_Source\PSoC4/BLE_eventHandler.c ****     if((cyBle_eventHandlerFlag & CYBLE_CALLBACK) != 0u)
 772:.\Generated_Source\PSoC4/BLE_eventHandler.c ****     {
 773:.\Generated_Source\PSoC4/BLE_eventHandler.c ****         CyBle_HidscNotificationEventHandler(eventParam);
 774:.\Generated_Source\PSoC4/BLE_eventHandler.c ****     }
 775:.\Generated_Source\PSoC4/BLE_eventHandler.c **** #endif /* CYBLE_HIDS_CLIENT */
 776:.\Generated_Source\PSoC4/BLE_eventHandler.c **** #ifdef CYBLE_HRS_CLIENT
 777:.\Generated_Source\PSoC4/BLE_eventHandler.c ****     if((cyBle_eventHandlerFlag & CYBLE_CALLBACK) != 0u)
 778:.\Generated_Source\PSoC4/BLE_eventHandler.c ****     {
 779:.\Generated_Source\PSoC4/BLE_eventHandler.c ****         CyBle_HrscNotificationEventHandler(eventParam);
 780:.\Generated_Source\PSoC4/BLE_eventHandler.c ****     }
 781:.\Generated_Source\PSoC4/BLE_eventHandler.c **** #endif /* CYBLE_HRS_CLIENT */
 782:.\Generated_Source\PSoC4/BLE_eventHandler.c **** #ifdef CYBLE_HTS_CLIENT
 783:.\Generated_Source\PSoC4/BLE_eventHandler.c ****     if((cyBle_eventHandlerFlag & CYBLE_CALLBACK) != 0u)
 784:.\Generated_Source\PSoC4/BLE_eventHandler.c ****     {
 785:.\Generated_Source\PSoC4/BLE_eventHandler.c ****         CyBle_HtscNotificationEventHandler(eventParam);
 786:.\Generated_Source\PSoC4/BLE_eventHandler.c ****     }
 787:.\Generated_Source\PSoC4/BLE_eventHandler.c **** #endif /* CYBLE_HTS_CLIENT */
 788:.\Generated_Source\PSoC4/BLE_eventHandler.c **** #ifdef CYBLE_LNS_CLIENT
 789:.\Generated_Source\PSoC4/BLE_eventHandler.c ****     if((cyBle_eventHandlerFlag & CYBLE_CALLBACK) != 0u)
 790:.\Generated_Source\PSoC4/BLE_eventHandler.c ****     {
 791:.\Generated_Source\PSoC4/BLE_eventHandler.c ****         CyBle_LnscNotificationEventHandler(eventParam);
 792:.\Generated_Source\PSoC4/BLE_eventHandler.c ****     }
 793:.\Generated_Source\PSoC4/BLE_eventHandler.c **** #endif /* CYBLE_LNS_CLIENT */
 794:.\Generated_Source\PSoC4/BLE_eventHandler.c **** #ifdef CYBLE_PASS_CLIENT
 795:.\Generated_Source\PSoC4/BLE_eventHandler.c ****     if((cyBle_eventHandlerFlag & CYBLE_CALLBACK) != 0u)
 796:.\Generated_Source\PSoC4/BLE_eventHandler.c ****     {
 797:.\Generated_Source\PSoC4/BLE_eventHandler.c ****         CyBle_PasscNotificationEventHandler(eventParam);
 798:.\Generated_Source\PSoC4/BLE_eventHandler.c ****     }
 799:.\Generated_Source\PSoC4/BLE_eventHandler.c **** #endif /* CYBLE_PASS_CLIENT */
 800:.\Generated_Source\PSoC4/BLE_eventHandler.c **** #ifdef CYBLE_RSCS_CLIENT
 801:.\Generated_Source\PSoC4/BLE_eventHandler.c ****     if((cyBle_eventHandlerFlag & CYBLE_CALLBACK) != 0u)
 802:.\Generated_Source\PSoC4/BLE_eventHandler.c ****     {
 803:.\Generated_Source\PSoC4/BLE_eventHandler.c ****         CyBle_RscscNotificationEventHandler(eventParam);
 804:.\Generated_Source\PSoC4/BLE_eventHandler.c ****     }
 805:.\Generated_Source\PSoC4/BLE_eventHandler.c **** #endif /* CYBLE_RSCS_CLIENT */
 806:.\Generated_Source\PSoC4/BLE_eventHandler.c **** #ifdef CYBLE_SCPS_CLIENT
 807:.\Generated_Source\PSoC4/BLE_eventHandler.c ****     if((cyBle_eventHandlerFlag & CYBLE_CALLBACK) != 0u)
 808:.\Generated_Source\PSoC4/BLE_eventHandler.c ****     {
 809:.\Generated_Source\PSoC4/BLE_eventHandler.c ****         CyBle_ScpscNotificationEventHandler(eventParam);
 810:.\Generated_Source\PSoC4/BLE_eventHandler.c ****     }
 811:.\Generated_Source\PSoC4/BLE_eventHandler.c **** #endif /* CYBLE_SCPS_CLIENT */
 812:.\Generated_Source\PSoC4/BLE_eventHandler.c **** #ifdef CYBLE_TPS_CLIENT
 813:.\Generated_Source\PSoC4/BLE_eventHandler.c ****     if((cyBle_eventHandlerFlag & CYBLE_CALLBACK) != 0u)
 814:.\Generated_Source\PSoC4/BLE_eventHandler.c ****     {
 815:.\Generated_Source\PSoC4/BLE_eventHandler.c ****         CyBle_TpscNotificationEventHandler(eventParam);
 816:.\Generated_Source\PSoC4/BLE_eventHandler.c ****     }
 817:.\Generated_Source\PSoC4/BLE_eventHandler.c **** #endif /* CYBLE_TPS_CLIENT */
 818:.\Generated_Source\PSoC4/BLE_eventHandler.c **** #ifdef CYBLE_UDS_CLIENT
ARM GAS  C:\Users\Kevin\AppData\Local\Temp\ccJ9qp0a.s 			page 18


 819:.\Generated_Source\PSoC4/BLE_eventHandler.c ****     if((cyBle_eventHandlerFlag & CYBLE_CALLBACK) != 0u)
 820:.\Generated_Source\PSoC4/BLE_eventHandler.c ****     {
 821:.\Generated_Source\PSoC4/BLE_eventHandler.c ****         CyBle_UdscNotificationEventHandler(eventParam);
 822:.\Generated_Source\PSoC4/BLE_eventHandler.c ****     }
 823:.\Generated_Source\PSoC4/BLE_eventHandler.c **** #endif /* CYBLE_UDS_CLIENT */
 824:.\Generated_Source\PSoC4/BLE_eventHandler.c **** #ifdef CYBLE_WPTS_CLIENT
 825:.\Generated_Source\PSoC4/BLE_eventHandler.c ****     if((cyBle_eventHandlerFlag & CYBLE_CALLBACK) != 0u)
 826:.\Generated_Source\PSoC4/BLE_eventHandler.c ****     {
 827:.\Generated_Source\PSoC4/BLE_eventHandler.c ****         CyBle_WptscNotificationEventHandler(eventParam);
 828:.\Generated_Source\PSoC4/BLE_eventHandler.c ****     }
 829:.\Generated_Source\PSoC4/BLE_eventHandler.c **** #endif /* CYBLE_WPTS_CLIENT */
 830:.\Generated_Source\PSoC4/BLE_eventHandler.c **** }
 831:.\Generated_Source\PSoC4/BLE_eventHandler.c **** 
 832:.\Generated_Source\PSoC4/BLE_eventHandler.c **** 
 833:.\Generated_Source\PSoC4/BLE_eventHandler.c **** /******************************************************************************    
 834:.\Generated_Source\PSoC4/BLE_eventHandler.c **** * Function Name: CyBle_IndicationEventHandler
 835:.\Generated_Source\PSoC4/BLE_eventHandler.c **** ***************************************************************************//**
 836:.\Generated_Source\PSoC4/BLE_eventHandler.c **** * 
 837:.\Generated_Source\PSoC4/BLE_eventHandler.c **** *  Handles the Indication event from BLE stack.
 838:.\Generated_Source\PSoC4/BLE_eventHandler.c **** * 
 839:.\Generated_Source\PSoC4/BLE_eventHandler.c **** *  CYBLE_GATTC_HANDLE_VALUE_IND_PARAM_T * eventParam - event parameter
 840:.\Generated_Source\PSoC4/BLE_eventHandler.c **** * 
 841:.\Generated_Source\PSoC4/BLE_eventHandler.c **** * \return
 842:.\Generated_Source\PSoC4/BLE_eventHandler.c **** *  None
 843:.\Generated_Source\PSoC4/BLE_eventHandler.c **** * 
 844:.\Generated_Source\PSoC4/BLE_eventHandler.c **** ******************************************************************************/
 845:.\Generated_Source\PSoC4/BLE_eventHandler.c **** static void CyBle_IndicationEventHandler(CYBLE_GATTC_HANDLE_VALUE_IND_PARAM_T *eventParam)
 846:.\Generated_Source\PSoC4/BLE_eventHandler.c **** {
 847:.\Generated_Source\PSoC4/BLE_eventHandler.c **** #ifdef CYBLE_BCS_CLIENT
 848:.\Generated_Source\PSoC4/BLE_eventHandler.c ****     if((cyBle_eventHandlerFlag & CYBLE_CALLBACK) != 0u)
 849:.\Generated_Source\PSoC4/BLE_eventHandler.c ****     {
 850:.\Generated_Source\PSoC4/BLE_eventHandler.c ****         CyBle_BcscIndicationEventHandler(eventParam);
 851:.\Generated_Source\PSoC4/BLE_eventHandler.c ****     }
 852:.\Generated_Source\PSoC4/BLE_eventHandler.c **** #endif /* CYBLE_BCS_CLIENT */
 853:.\Generated_Source\PSoC4/BLE_eventHandler.c **** #ifdef CYBLE_BLS_CLIENT
 854:.\Generated_Source\PSoC4/BLE_eventHandler.c ****     if((cyBle_eventHandlerFlag & CYBLE_CALLBACK) != 0u)
 855:.\Generated_Source\PSoC4/BLE_eventHandler.c ****     {
 856:.\Generated_Source\PSoC4/BLE_eventHandler.c ****         CyBle_BlscIndicationEventHandler(eventParam);
 857:.\Generated_Source\PSoC4/BLE_eventHandler.c ****     }
 858:.\Generated_Source\PSoC4/BLE_eventHandler.c **** #endif /* CYBLE_BLS_CLIENT */
 859:.\Generated_Source\PSoC4/BLE_eventHandler.c **** #ifdef CYBLE_CGMS_CLIENT
 860:.\Generated_Source\PSoC4/BLE_eventHandler.c ****     if((cyBle_eventHandlerFlag & CYBLE_CALLBACK) != 0u)
 861:.\Generated_Source\PSoC4/BLE_eventHandler.c ****     {
 862:.\Generated_Source\PSoC4/BLE_eventHandler.c ****         CyBle_CgmscIndicationEventHandler(eventParam);
 863:.\Generated_Source\PSoC4/BLE_eventHandler.c ****     }
 864:.\Generated_Source\PSoC4/BLE_eventHandler.c **** #endif /* CYBLE_CGMS_CLIENT */
 865:.\Generated_Source\PSoC4/BLE_eventHandler.c **** #ifdef CYBLE_CPS_CLIENT
 866:.\Generated_Source\PSoC4/BLE_eventHandler.c ****     if((cyBle_eventHandlerFlag & CYBLE_CALLBACK) != 0u)
 867:.\Generated_Source\PSoC4/BLE_eventHandler.c ****     {
 868:.\Generated_Source\PSoC4/BLE_eventHandler.c ****         CyBle_CpscIndicationEventHandler(eventParam);
 869:.\Generated_Source\PSoC4/BLE_eventHandler.c ****     }
 870:.\Generated_Source\PSoC4/BLE_eventHandler.c **** #endif /* CYBLE_CPS_CLIENT */
 871:.\Generated_Source\PSoC4/BLE_eventHandler.c **** #ifdef CYBLE_CSCS_CLIENT
 872:.\Generated_Source\PSoC4/BLE_eventHandler.c ****     if((cyBle_eventHandlerFlag & CYBLE_CALLBACK) != 0u)
 873:.\Generated_Source\PSoC4/BLE_eventHandler.c ****     {
 874:.\Generated_Source\PSoC4/BLE_eventHandler.c ****         CyBle_CscscIndicationEventHandler(eventParam);
 875:.\Generated_Source\PSoC4/BLE_eventHandler.c ****     }
ARM GAS  C:\Users\Kevin\AppData\Local\Temp\ccJ9qp0a.s 			page 19


 876:.\Generated_Source\PSoC4/BLE_eventHandler.c **** #endif /* CYBLE_CSCS_CLIENT */
 877:.\Generated_Source\PSoC4/BLE_eventHandler.c **** #ifdef CYBLE_ESS_CLIENT
 878:.\Generated_Source\PSoC4/BLE_eventHandler.c ****     if((cyBle_eventHandlerFlag & CYBLE_CALLBACK) != 0u)
 879:.\Generated_Source\PSoC4/BLE_eventHandler.c ****     {
 880:.\Generated_Source\PSoC4/BLE_eventHandler.c ****         CyBle_EsscIndicationEventHandler(eventParam);
 881:.\Generated_Source\PSoC4/BLE_eventHandler.c ****     }
 882:.\Generated_Source\PSoC4/BLE_eventHandler.c **** #endif /* CYBLE_ESS_CLIENT */
 883:.\Generated_Source\PSoC4/BLE_eventHandler.c **** #ifdef CYBLE_GLS_CLIENT
 884:.\Generated_Source\PSoC4/BLE_eventHandler.c ****     if((cyBle_eventHandlerFlag & CYBLE_CALLBACK) != 0u)
 885:.\Generated_Source\PSoC4/BLE_eventHandler.c ****     {
 886:.\Generated_Source\PSoC4/BLE_eventHandler.c ****         CyBle_GlscIndicationEventHandler(eventParam);
 887:.\Generated_Source\PSoC4/BLE_eventHandler.c ****     }
 888:.\Generated_Source\PSoC4/BLE_eventHandler.c **** #endif /* CYBLE_GLS_CLIENT */
 889:.\Generated_Source\PSoC4/BLE_eventHandler.c **** #ifdef CYBLE_HTS_CLIENT
 890:.\Generated_Source\PSoC4/BLE_eventHandler.c ****     if((cyBle_eventHandlerFlag & CYBLE_CALLBACK) != 0u)
 891:.\Generated_Source\PSoC4/BLE_eventHandler.c ****     {
 892:.\Generated_Source\PSoC4/BLE_eventHandler.c ****         CyBle_HtscIndicationEventHandler(eventParam);
 893:.\Generated_Source\PSoC4/BLE_eventHandler.c ****     }
 894:.\Generated_Source\PSoC4/BLE_eventHandler.c **** #endif /* CYBLE_HTS_CLIENT */
 895:.\Generated_Source\PSoC4/BLE_eventHandler.c **** #ifdef CYBLE_LNS_CLIENT
 896:.\Generated_Source\PSoC4/BLE_eventHandler.c ****     if((cyBle_eventHandlerFlag & CYBLE_CALLBACK) != 0u)
 897:.\Generated_Source\PSoC4/BLE_eventHandler.c ****     {
 898:.\Generated_Source\PSoC4/BLE_eventHandler.c ****         CyBle_LnscIndicationEventHandler(eventParam);
 899:.\Generated_Source\PSoC4/BLE_eventHandler.c ****     }
 900:.\Generated_Source\PSoC4/BLE_eventHandler.c **** #endif /* CYBLE_LNS_CLIENT */
 901:.\Generated_Source\PSoC4/BLE_eventHandler.c **** #ifdef CYBLE_RSCS_CLIENT
 902:.\Generated_Source\PSoC4/BLE_eventHandler.c ****     if((cyBle_eventHandlerFlag & CYBLE_CALLBACK) != 0u)
 903:.\Generated_Source\PSoC4/BLE_eventHandler.c ****     {
 904:.\Generated_Source\PSoC4/BLE_eventHandler.c ****         CyBle_RscscIndicationEventHandler(eventParam);
 905:.\Generated_Source\PSoC4/BLE_eventHandler.c ****     }
 906:.\Generated_Source\PSoC4/BLE_eventHandler.c **** #endif /* CYBLE_RSCS_CLIENT */
 907:.\Generated_Source\PSoC4/BLE_eventHandler.c **** #ifdef CYBLE_UDS_CLIENT
 908:.\Generated_Source\PSoC4/BLE_eventHandler.c ****     if((cyBle_eventHandlerFlag & CYBLE_CALLBACK) != 0u)
 909:.\Generated_Source\PSoC4/BLE_eventHandler.c ****     {
 910:.\Generated_Source\PSoC4/BLE_eventHandler.c ****         CyBle_UdscIndicationEventHandler(eventParam);
 911:.\Generated_Source\PSoC4/BLE_eventHandler.c ****     }
 912:.\Generated_Source\PSoC4/BLE_eventHandler.c **** #endif /* CYBLE_UDS_CLIENT */
 913:.\Generated_Source\PSoC4/BLE_eventHandler.c **** #ifdef CYBLE_WPTS_CLIENT
 914:.\Generated_Source\PSoC4/BLE_eventHandler.c ****     if((cyBle_eventHandlerFlag & CYBLE_CALLBACK) != 0u)
 915:.\Generated_Source\PSoC4/BLE_eventHandler.c ****     {
 916:.\Generated_Source\PSoC4/BLE_eventHandler.c ****         CyBle_WptscIndicationEventHandler(eventParam);
 917:.\Generated_Source\PSoC4/BLE_eventHandler.c ****     }
 918:.\Generated_Source\PSoC4/BLE_eventHandler.c **** #endif /* CYBLE_WPTS_CLIENT */
 919:.\Generated_Source\PSoC4/BLE_eventHandler.c **** #ifdef CYBLE_WSS_CLIENT
 920:.\Generated_Source\PSoC4/BLE_eventHandler.c ****     if((cyBle_eventHandlerFlag & CYBLE_CALLBACK) != 0u)
 921:.\Generated_Source\PSoC4/BLE_eventHandler.c ****     {
 922:.\Generated_Source\PSoC4/BLE_eventHandler.c ****         CyBle_WsscIndicationEventHandler(eventParam);
 923:.\Generated_Source\PSoC4/BLE_eventHandler.c ****     }
 924:.\Generated_Source\PSoC4/BLE_eventHandler.c **** #endif /* CYBLE_WSS_CLIENT */
 925:.\Generated_Source\PSoC4/BLE_eventHandler.c **** }
 926:.\Generated_Source\PSoC4/BLE_eventHandler.c **** 
 927:.\Generated_Source\PSoC4/BLE_eventHandler.c **** 
 928:.\Generated_Source\PSoC4/BLE_eventHandler.c **** 
 929:.\Generated_Source\PSoC4/BLE_eventHandler.c **** /******************************************************************************    
 930:.\Generated_Source\PSoC4/BLE_eventHandler.c **** * Function Name: CyBle_ReadResponseEventHandler
 931:.\Generated_Source\PSoC4/BLE_eventHandler.c **** ***************************************************************************//**
 932:.\Generated_Source\PSoC4/BLE_eventHandler.c **** * 
ARM GAS  C:\Users\Kevin\AppData\Local\Temp\ccJ9qp0a.s 			page 20


 933:.\Generated_Source\PSoC4/BLE_eventHandler.c **** *  Handles the Read Response event from BLE stack.
 934:.\Generated_Source\PSoC4/BLE_eventHandler.c **** * 
 935:.\Generated_Source\PSoC4/BLE_eventHandler.c **** *  CYBLE_GATTC_READ_RSP_PARAM_T * eventParam - event parameter
 936:.\Generated_Source\PSoC4/BLE_eventHandler.c **** * 
 937:.\Generated_Source\PSoC4/BLE_eventHandler.c **** * \return
 938:.\Generated_Source\PSoC4/BLE_eventHandler.c **** *  None
 939:.\Generated_Source\PSoC4/BLE_eventHandler.c **** * 
 940:.\Generated_Source\PSoC4/BLE_eventHandler.c **** ******************************************************************************/
 941:.\Generated_Source\PSoC4/BLE_eventHandler.c **** static void CyBle_ReadResponseEventHandler(CYBLE_GATTC_READ_RSP_PARAM_T *eventParam)
 942:.\Generated_Source\PSoC4/BLE_eventHandler.c **** {
 943:.\Generated_Source\PSoC4/BLE_eventHandler.c **** #ifdef CYBLE_CUSTOM_CLIENT
 944:.\Generated_Source\PSoC4/BLE_eventHandler.c ****     /* Read response with 128-bit included service uuid */
 945:.\Generated_Source\PSoC4/BLE_eventHandler.c ****     if((CYBLE_CLIENT_STATE_INCL_DISCOVERING == CyBle_GetClientState()) &&
 946:.\Generated_Source\PSoC4/BLE_eventHandler.c ****        (cyBle_discInclInfo.inclDefHandle != 0u))
 947:.\Generated_Source\PSoC4/BLE_eventHandler.c ****     {
 948:.\Generated_Source\PSoC4/BLE_eventHandler.c ****         CYBLE_DISC_SRVC128_INFO_T discServInfo;
 949:.\Generated_Source\PSoC4/BLE_eventHandler.c **** 
 950:.\Generated_Source\PSoC4/BLE_eventHandler.c ****         /* Store service range */
 951:.\Generated_Source\PSoC4/BLE_eventHandler.c ****         discServInfo.range = cyBle_discInclInfo.inclHandleRange;
 952:.\Generated_Source\PSoC4/BLE_eventHandler.c ****         (void)memcpy((void *) discServInfo.uuid.uuid128.value, (void *)eventParam->value.val, event
 953:.\Generated_Source\PSoC4/BLE_eventHandler.c ****         CyBle_CustomcDiscoverServiceEventHandler(&discServInfo);
 954:.\Generated_Source\PSoC4/BLE_eventHandler.c ****         
 955:.\Generated_Source\PSoC4/BLE_eventHandler.c ****         /* Re-initiate CyBle_GattcFindIncludedServices function, setting the start
 956:.\Generated_Source\PSoC4/BLE_eventHandler.c ****            handle to the attribute handle which is placed next to the one used in
 957:.\Generated_Source\PSoC4/BLE_eventHandler.c ****            the above step.
 958:.\Generated_Source\PSoC4/BLE_eventHandler.c ****         */
 959:.\Generated_Source\PSoC4/BLE_eventHandler.c ****         discServInfo.range.startHandle = cyBle_discInclInfo.inclDefHandle + 1;
 960:.\Generated_Source\PSoC4/BLE_eventHandler.c ****         discServInfo.range.endHandle = cyBle_serverInfo[cyBle_disCount].range.endHandle;
 961:.\Generated_Source\PSoC4/BLE_eventHandler.c ****         if(discServInfo.range.startHandle <= discServInfo.range.endHandle)
 962:.\Generated_Source\PSoC4/BLE_eventHandler.c ****         {
 963:.\Generated_Source\PSoC4/BLE_eventHandler.c ****             if(CYBLE_ERROR_OK != CyBle_GattcFindIncludedServices(cyBle_connHandle, &discServInfo.ra
 964:.\Generated_Source\PSoC4/BLE_eventHandler.c ****             {
 965:.\Generated_Source\PSoC4/BLE_eventHandler.c ****                 CyBle_ApplCallback(CYBLE_EVT_GATTC_INCL_DISCOVERY_FAILED, NULL);
 966:.\Generated_Source\PSoC4/BLE_eventHandler.c ****                 cyBle_eventHandlerFlag &= (uint8)~CYBLE_AUTO_DISCOVERY;
 967:.\Generated_Source\PSoC4/BLE_eventHandler.c ****             }
 968:.\Generated_Source\PSoC4/BLE_eventHandler.c ****         }
 969:.\Generated_Source\PSoC4/BLE_eventHandler.c ****         else /* Continue discovery of the following service */
 970:.\Generated_Source\PSoC4/BLE_eventHandler.c ****         {
 971:.\Generated_Source\PSoC4/BLE_eventHandler.c ****             CyBle_NextInclDiscovery(CYBLE_DISCOVERY_CONTINUE);
 972:.\Generated_Source\PSoC4/BLE_eventHandler.c ****         }
 973:.\Generated_Source\PSoC4/BLE_eventHandler.c ****         
 974:.\Generated_Source\PSoC4/BLE_eventHandler.c ****         cyBle_eventHandlerFlag &= (uint8)~CYBLE_CALLBACK;
 975:.\Generated_Source\PSoC4/BLE_eventHandler.c ****         cyBle_discInclInfo.inclDefHandle = 0u;
 976:.\Generated_Source\PSoC4/BLE_eventHandler.c ****         
 977:.\Generated_Source\PSoC4/BLE_eventHandler.c ****     }
 978:.\Generated_Source\PSoC4/BLE_eventHandler.c **** #endif /* CYBLE_CUSTOM_CLIENT */
 979:.\Generated_Source\PSoC4/BLE_eventHandler.c **** #ifdef CYBLE_ANCS_CLIENT
 980:.\Generated_Source\PSoC4/BLE_eventHandler.c ****     if((cyBle_eventHandlerFlag & CYBLE_CALLBACK) != 0u)
 981:.\Generated_Source\PSoC4/BLE_eventHandler.c ****     {
 982:.\Generated_Source\PSoC4/BLE_eventHandler.c ****         CyBle_AncscReadResponseEventHandler(eventParam);
 983:.\Generated_Source\PSoC4/BLE_eventHandler.c ****     }
 984:.\Generated_Source\PSoC4/BLE_eventHandler.c **** #endif /* CYBLE_ANCS_CLIENT */
 985:.\Generated_Source\PSoC4/BLE_eventHandler.c **** #ifdef CYBLE_ANS_CLIENT
 986:.\Generated_Source\PSoC4/BLE_eventHandler.c ****     if((cyBle_eventHandlerFlag & CYBLE_CALLBACK) != 0u)
 987:.\Generated_Source\PSoC4/BLE_eventHandler.c ****     {
 988:.\Generated_Source\PSoC4/BLE_eventHandler.c ****         CyBle_AnscReadResponseEventHandler(eventParam);
 989:.\Generated_Source\PSoC4/BLE_eventHandler.c ****     }
ARM GAS  C:\Users\Kevin\AppData\Local\Temp\ccJ9qp0a.s 			page 21


 990:.\Generated_Source\PSoC4/BLE_eventHandler.c **** #endif /* CYBLE_ANS_CLIENT */
 991:.\Generated_Source\PSoC4/BLE_eventHandler.c **** #ifdef CYBLE_BAS_CLIENT
 992:.\Generated_Source\PSoC4/BLE_eventHandler.c ****     if((cyBle_eventHandlerFlag & CYBLE_CALLBACK) != 0u)
 993:.\Generated_Source\PSoC4/BLE_eventHandler.c ****     {
 994:.\Generated_Source\PSoC4/BLE_eventHandler.c ****         CyBle_BascReadResponseEventHandler(eventParam);
 995:.\Generated_Source\PSoC4/BLE_eventHandler.c ****     }
 996:.\Generated_Source\PSoC4/BLE_eventHandler.c **** #endif /* CYBLE_BAS_CLIENT */
 997:.\Generated_Source\PSoC4/BLE_eventHandler.c **** #ifdef CYBLE_BLS_CLIENT
 998:.\Generated_Source\PSoC4/BLE_eventHandler.c ****     if((cyBle_eventHandlerFlag & CYBLE_CALLBACK) != 0u)
 999:.\Generated_Source\PSoC4/BLE_eventHandler.c ****     {
1000:.\Generated_Source\PSoC4/BLE_eventHandler.c ****         CyBle_BlscReadResponseEventHandler(eventParam);
1001:.\Generated_Source\PSoC4/BLE_eventHandler.c ****     }
1002:.\Generated_Source\PSoC4/BLE_eventHandler.c **** #endif /* CYBLE_BLS_CLIENT */
1003:.\Generated_Source\PSoC4/BLE_eventHandler.c **** #ifdef CYBLE_BCS_CLIENT
1004:.\Generated_Source\PSoC4/BLE_eventHandler.c ****     if((cyBle_eventHandlerFlag & CYBLE_CALLBACK) != 0u)
1005:.\Generated_Source\PSoC4/BLE_eventHandler.c ****     {
1006:.\Generated_Source\PSoC4/BLE_eventHandler.c ****         CyBle_BcscReadResponseEventHandler(eventParam);
1007:.\Generated_Source\PSoC4/BLE_eventHandler.c ****     }
1008:.\Generated_Source\PSoC4/BLE_eventHandler.c **** #endif /* CYBLE_BCS_CLIENT */
1009:.\Generated_Source\PSoC4/BLE_eventHandler.c **** #ifdef CYBLE_BMS_CLIENT
1010:.\Generated_Source\PSoC4/BLE_eventHandler.c ****     if((cyBle_eventHandlerFlag & CYBLE_CALLBACK) != 0u)
1011:.\Generated_Source\PSoC4/BLE_eventHandler.c ****     {
1012:.\Generated_Source\PSoC4/BLE_eventHandler.c ****         CyBle_BmscReadResponseEventHandler(eventParam);
1013:.\Generated_Source\PSoC4/BLE_eventHandler.c ****     }
1014:.\Generated_Source\PSoC4/BLE_eventHandler.c **** #endif /* CYBLE_BMS_CLIENT */
1015:.\Generated_Source\PSoC4/BLE_eventHandler.c **** #ifdef CYBLE_CGMS_CLIENT
1016:.\Generated_Source\PSoC4/BLE_eventHandler.c ****     if((cyBle_eventHandlerFlag & CYBLE_CALLBACK) != 0u)
1017:.\Generated_Source\PSoC4/BLE_eventHandler.c ****     {
1018:.\Generated_Source\PSoC4/BLE_eventHandler.c ****         CyBle_CgmscReadResponseEventHandler(eventParam);
1019:.\Generated_Source\PSoC4/BLE_eventHandler.c ****     }
1020:.\Generated_Source\PSoC4/BLE_eventHandler.c **** #endif /* CYBLE_CGMS_CLIENT */
1021:.\Generated_Source\PSoC4/BLE_eventHandler.c **** #ifdef CYBLE_CPS_CLIENT
1022:.\Generated_Source\PSoC4/BLE_eventHandler.c ****     if((cyBle_eventHandlerFlag & CYBLE_CALLBACK) != 0u)
1023:.\Generated_Source\PSoC4/BLE_eventHandler.c ****     {
1024:.\Generated_Source\PSoC4/BLE_eventHandler.c ****         CyBle_CpscReadResponseEventHandler(eventParam);
1025:.\Generated_Source\PSoC4/BLE_eventHandler.c ****     }
1026:.\Generated_Source\PSoC4/BLE_eventHandler.c **** #endif /* CYBLE_CPS_CLIENT */
1027:.\Generated_Source\PSoC4/BLE_eventHandler.c **** #ifdef CYBLE_CSCS_CLIENT
1028:.\Generated_Source\PSoC4/BLE_eventHandler.c ****     if((cyBle_eventHandlerFlag & CYBLE_CALLBACK) != 0u)
1029:.\Generated_Source\PSoC4/BLE_eventHandler.c ****     {
1030:.\Generated_Source\PSoC4/BLE_eventHandler.c ****         CyBle_CscscReadResponseEventHandler(eventParam);
1031:.\Generated_Source\PSoC4/BLE_eventHandler.c ****     }
1032:.\Generated_Source\PSoC4/BLE_eventHandler.c **** #endif /* CYBLE_CSCS_CLIENT */
1033:.\Generated_Source\PSoC4/BLE_eventHandler.c **** #ifdef CYBLE_CTS_CLIENT
1034:.\Generated_Source\PSoC4/BLE_eventHandler.c ****     if((cyBle_eventHandlerFlag & CYBLE_CALLBACK) != 0u)
1035:.\Generated_Source\PSoC4/BLE_eventHandler.c ****     {
1036:.\Generated_Source\PSoC4/BLE_eventHandler.c ****         CyBle_CtscReadResponseEventHandler(eventParam);
1037:.\Generated_Source\PSoC4/BLE_eventHandler.c ****     }
1038:.\Generated_Source\PSoC4/BLE_eventHandler.c **** #endif /* CYBLE_BAS_CLIENT */
1039:.\Generated_Source\PSoC4/BLE_eventHandler.c **** #ifdef CYBLE_DIS_CLIENT
1040:.\Generated_Source\PSoC4/BLE_eventHandler.c ****     if((cyBle_eventHandlerFlag & CYBLE_CALLBACK) != 0u)
1041:.\Generated_Source\PSoC4/BLE_eventHandler.c ****     {
1042:.\Generated_Source\PSoC4/BLE_eventHandler.c ****         CyBle_DiscReadResponseEventHandler(eventParam);
1043:.\Generated_Source\PSoC4/BLE_eventHandler.c ****     }
1044:.\Generated_Source\PSoC4/BLE_eventHandler.c **** #endif /* CYBLE_DIS_CLIENT */
1045:.\Generated_Source\PSoC4/BLE_eventHandler.c **** #ifdef CYBLE_ESS_CLIENT
1046:.\Generated_Source\PSoC4/BLE_eventHandler.c ****     if((cyBle_eventHandlerFlag & CYBLE_CALLBACK) != 0u)
ARM GAS  C:\Users\Kevin\AppData\Local\Temp\ccJ9qp0a.s 			page 22


1047:.\Generated_Source\PSoC4/BLE_eventHandler.c ****     {
1048:.\Generated_Source\PSoC4/BLE_eventHandler.c ****         CyBle_EsscReadResponseEventHandler(eventParam);
1049:.\Generated_Source\PSoC4/BLE_eventHandler.c ****     }
1050:.\Generated_Source\PSoC4/BLE_eventHandler.c **** #endif /* CYBLE_ESS_CLIENT */
1051:.\Generated_Source\PSoC4/BLE_eventHandler.c **** #ifdef CYBLE_GLS_CLIENT
1052:.\Generated_Source\PSoC4/BLE_eventHandler.c ****     if((cyBle_eventHandlerFlag & CYBLE_CALLBACK) != 0u)
1053:.\Generated_Source\PSoC4/BLE_eventHandler.c ****     {
1054:.\Generated_Source\PSoC4/BLE_eventHandler.c ****         CyBle_GlscReadResponseEventHandler(eventParam);
1055:.\Generated_Source\PSoC4/BLE_eventHandler.c ****     }
1056:.\Generated_Source\PSoC4/BLE_eventHandler.c **** #endif /* CYBLE_GLS_CLIENT */
1057:.\Generated_Source\PSoC4/BLE_eventHandler.c **** #ifdef CYBLE_HIDS_CLIENT
1058:.\Generated_Source\PSoC4/BLE_eventHandler.c ****     if((cyBle_eventHandlerFlag & CYBLE_CALLBACK) != 0u)
1059:.\Generated_Source\PSoC4/BLE_eventHandler.c ****     {
1060:.\Generated_Source\PSoC4/BLE_eventHandler.c ****         CyBle_HidscReadResponseEventHandler(eventParam);
1061:.\Generated_Source\PSoC4/BLE_eventHandler.c ****     }
1062:.\Generated_Source\PSoC4/BLE_eventHandler.c **** #endif /* CYBLE_HIDS_CLIENT */
1063:.\Generated_Source\PSoC4/BLE_eventHandler.c **** #ifdef CYBLE_HRS_CLIENT
1064:.\Generated_Source\PSoC4/BLE_eventHandler.c ****     if((cyBle_eventHandlerFlag & CYBLE_CALLBACK) != 0u)
1065:.\Generated_Source\PSoC4/BLE_eventHandler.c ****     {
1066:.\Generated_Source\PSoC4/BLE_eventHandler.c ****         CyBle_HrscReadResponseEventHandler(eventParam);
1067:.\Generated_Source\PSoC4/BLE_eventHandler.c ****     }
1068:.\Generated_Source\PSoC4/BLE_eventHandler.c **** #endif /* CYBLE_HRS_CLIENT */
1069:.\Generated_Source\PSoC4/BLE_eventHandler.c **** #ifdef CYBLE_HTS_CLIENT
1070:.\Generated_Source\PSoC4/BLE_eventHandler.c ****     if((cyBle_eventHandlerFlag & CYBLE_CALLBACK) != 0u)
1071:.\Generated_Source\PSoC4/BLE_eventHandler.c ****     {
1072:.\Generated_Source\PSoC4/BLE_eventHandler.c ****         CyBle_HtscReadResponseEventHandler(eventParam);
1073:.\Generated_Source\PSoC4/BLE_eventHandler.c ****     }
1074:.\Generated_Source\PSoC4/BLE_eventHandler.c **** #endif /* CYBLE_HTS_CLIENT */
1075:.\Generated_Source\PSoC4/BLE_eventHandler.c **** #ifdef CYBLE_LLS_CLIENT
1076:.\Generated_Source\PSoC4/BLE_eventHandler.c ****     if((cyBle_eventHandlerFlag & CYBLE_CALLBACK) != 0u)
1077:.\Generated_Source\PSoC4/BLE_eventHandler.c ****     {
1078:.\Generated_Source\PSoC4/BLE_eventHandler.c ****         CyBle_LlscReadResponseEventHandler(eventParam);
1079:.\Generated_Source\PSoC4/BLE_eventHandler.c ****     }
1080:.\Generated_Source\PSoC4/BLE_eventHandler.c **** #endif /* CYBLE_LLS_CLIENT */
1081:.\Generated_Source\PSoC4/BLE_eventHandler.c **** #ifdef CYBLE_LNS_CLIENT
1082:.\Generated_Source\PSoC4/BLE_eventHandler.c ****     if((cyBle_eventHandlerFlag & CYBLE_CALLBACK) != 0u)
1083:.\Generated_Source\PSoC4/BLE_eventHandler.c ****     {
1084:.\Generated_Source\PSoC4/BLE_eventHandler.c ****         CyBle_LnscReadResponseEventHandler(eventParam);
1085:.\Generated_Source\PSoC4/BLE_eventHandler.c ****     }
1086:.\Generated_Source\PSoC4/BLE_eventHandler.c **** #endif /* CYBLE_LNS_CLIENT */
1087:.\Generated_Source\PSoC4/BLE_eventHandler.c **** #ifdef CYBLE_NDCS_CLIENT
1088:.\Generated_Source\PSoC4/BLE_eventHandler.c ****     if((cyBle_eventHandlerFlag & CYBLE_CALLBACK) != 0u)
1089:.\Generated_Source\PSoC4/BLE_eventHandler.c ****     {
1090:.\Generated_Source\PSoC4/BLE_eventHandler.c ****         CyBle_NdcscReadResponseEventHandler(eventParam);
1091:.\Generated_Source\PSoC4/BLE_eventHandler.c ****     }
1092:.\Generated_Source\PSoC4/BLE_eventHandler.c **** #endif /* CYBLE_NDCS_CLIENT */
1093:.\Generated_Source\PSoC4/BLE_eventHandler.c **** #ifdef CYBLE_PASS_CLIENT
1094:.\Generated_Source\PSoC4/BLE_eventHandler.c ****     if((cyBle_eventHandlerFlag & CYBLE_CALLBACK) != 0u)
1095:.\Generated_Source\PSoC4/BLE_eventHandler.c ****     {
1096:.\Generated_Source\PSoC4/BLE_eventHandler.c ****         CyBle_PasscReadResponseEventHandler(eventParam);
1097:.\Generated_Source\PSoC4/BLE_eventHandler.c ****     }
1098:.\Generated_Source\PSoC4/BLE_eventHandler.c **** #endif /* CYBLE_PASS_CLIENT */
1099:.\Generated_Source\PSoC4/BLE_eventHandler.c **** #ifdef CYBLE_RSCS_CLIENT
1100:.\Generated_Source\PSoC4/BLE_eventHandler.c ****     if((cyBle_eventHandlerFlag & CYBLE_CALLBACK) != 0u)
1101:.\Generated_Source\PSoC4/BLE_eventHandler.c ****     {
1102:.\Generated_Source\PSoC4/BLE_eventHandler.c ****         CyBle_RscscReadResponseEventHandler(eventParam);
1103:.\Generated_Source\PSoC4/BLE_eventHandler.c ****     }
ARM GAS  C:\Users\Kevin\AppData\Local\Temp\ccJ9qp0a.s 			page 23


1104:.\Generated_Source\PSoC4/BLE_eventHandler.c **** #endif /* CYBLE_RSCS_CLIENT */
1105:.\Generated_Source\PSoC4/BLE_eventHandler.c **** #ifdef CYBLE_RTUS_CLIENT
1106:.\Generated_Source\PSoC4/BLE_eventHandler.c ****     if((cyBle_eventHandlerFlag & CYBLE_CALLBACK) != 0u)
1107:.\Generated_Source\PSoC4/BLE_eventHandler.c ****     {
1108:.\Generated_Source\PSoC4/BLE_eventHandler.c ****         CyBle_RtuscReadResponseEventHandler(eventParam);
1109:.\Generated_Source\PSoC4/BLE_eventHandler.c ****     }
1110:.\Generated_Source\PSoC4/BLE_eventHandler.c **** #endif /* CYBLE_RTUS_CLIENT */
1111:.\Generated_Source\PSoC4/BLE_eventHandler.c **** #ifdef CYBLE_SCPS_CLIENT
1112:.\Generated_Source\PSoC4/BLE_eventHandler.c ****     if((cyBle_eventHandlerFlag & CYBLE_CALLBACK) != 0u)
1113:.\Generated_Source\PSoC4/BLE_eventHandler.c ****     {
1114:.\Generated_Source\PSoC4/BLE_eventHandler.c ****         CyBle_ScpscReadResponseEventHandler(eventParam);
1115:.\Generated_Source\PSoC4/BLE_eventHandler.c ****     }
1116:.\Generated_Source\PSoC4/BLE_eventHandler.c **** #endif /* CYBLE_SCPS_CLIENT */
1117:.\Generated_Source\PSoC4/BLE_eventHandler.c **** #ifdef CYBLE_TPS_CLIENT
1118:.\Generated_Source\PSoC4/BLE_eventHandler.c ****     if((cyBle_eventHandlerFlag & CYBLE_CALLBACK) != 0u)
1119:.\Generated_Source\PSoC4/BLE_eventHandler.c ****     {
1120:.\Generated_Source\PSoC4/BLE_eventHandler.c ****         CyBle_TpscReadResponseEventHandler(eventParam);
1121:.\Generated_Source\PSoC4/BLE_eventHandler.c ****     }
1122:.\Generated_Source\PSoC4/BLE_eventHandler.c **** #endif /* CYBLE_TPS_CLIENT */
1123:.\Generated_Source\PSoC4/BLE_eventHandler.c **** #ifdef CYBLE_UDS_CLIENT
1124:.\Generated_Source\PSoC4/BLE_eventHandler.c ****     if((cyBle_eventHandlerFlag & CYBLE_CALLBACK) != 0u)
1125:.\Generated_Source\PSoC4/BLE_eventHandler.c ****     {
1126:.\Generated_Source\PSoC4/BLE_eventHandler.c ****         CyBle_UdscReadResponseEventHandler(eventParam);
1127:.\Generated_Source\PSoC4/BLE_eventHandler.c ****     }
1128:.\Generated_Source\PSoC4/BLE_eventHandler.c **** #endif /* CYBLE_UDS_CLIENT */
1129:.\Generated_Source\PSoC4/BLE_eventHandler.c **** #ifdef CYBLE_WPTS_CLIENT
1130:.\Generated_Source\PSoC4/BLE_eventHandler.c ****     if((cyBle_eventHandlerFlag & CYBLE_CALLBACK) != 0u)
1131:.\Generated_Source\PSoC4/BLE_eventHandler.c ****     {
1132:.\Generated_Source\PSoC4/BLE_eventHandler.c ****         CyBle_WptscReadResponseEventHandler(eventParam);
1133:.\Generated_Source\PSoC4/BLE_eventHandler.c ****     }
1134:.\Generated_Source\PSoC4/BLE_eventHandler.c **** #endif /* CYBLE_WPTS_CLIENT */
1135:.\Generated_Source\PSoC4/BLE_eventHandler.c **** #ifdef CYBLE_WSS_CLIENT
1136:.\Generated_Source\PSoC4/BLE_eventHandler.c ****     if((cyBle_eventHandlerFlag & CYBLE_CALLBACK) != 0u)
1137:.\Generated_Source\PSoC4/BLE_eventHandler.c ****     {
1138:.\Generated_Source\PSoC4/BLE_eventHandler.c ****         CyBle_WsscReadResponseEventHandler(eventParam);
1139:.\Generated_Source\PSoC4/BLE_eventHandler.c ****     }
1140:.\Generated_Source\PSoC4/BLE_eventHandler.c **** #endif /* CYBLE_WSS_CLIENT */
1141:.\Generated_Source\PSoC4/BLE_eventHandler.c **** }
1142:.\Generated_Source\PSoC4/BLE_eventHandler.c **** #endif /* CYBLE_GATT_ROLE_CLIENT */
1143:.\Generated_Source\PSoC4/BLE_eventHandler.c **** 
1144:.\Generated_Source\PSoC4/BLE_eventHandler.c **** 
1145:.\Generated_Source\PSoC4/BLE_eventHandler.c **** /****************************************************************************** 
1146:.\Generated_Source\PSoC4/BLE_eventHandler.c **** * Function Name: CyBle_DisconnectEventHandler
1147:.\Generated_Source\PSoC4/BLE_eventHandler.c **** ***************************************************************************//**
1148:.\Generated_Source\PSoC4/BLE_eventHandler.c **** * 
1149:.\Generated_Source\PSoC4/BLE_eventHandler.c **** *  Handles the GATT Disconnection event from the BLE stack.
1150:.\Generated_Source\PSoC4/BLE_eventHandler.c **** * 
1151:.\Generated_Source\PSoC4/BLE_eventHandler.c **** * \return
1152:.\Generated_Source\PSoC4/BLE_eventHandler.c **** *  None
1153:.\Generated_Source\PSoC4/BLE_eventHandler.c **** * 
1154:.\Generated_Source\PSoC4/BLE_eventHandler.c **** ******************************************************************************/
1155:.\Generated_Source\PSoC4/BLE_eventHandler.c **** static void CyBle_GattDisconnectEventHandler(void)
1156:.\Generated_Source\PSoC4/BLE_eventHandler.c **** {
 152              		.loc 1 1156 0
 153              		.cfi_startproc
 154 0000 80B5     		push	{r7, lr}
 155              		.cfi_def_cfa_offset 8
ARM GAS  C:\Users\Kevin\AppData\Local\Temp\ccJ9qp0a.s 			page 24


 156              		.cfi_offset 7, -8
 157              		.cfi_offset 14, -4
 158 0002 00AF     		add	r7, sp, #0
 159              		.cfi_def_cfa_register 7
1157:.\Generated_Source\PSoC4/BLE_eventHandler.c ****     cyBle_connHandle.attId = 0u;
 160              		.loc 1 1157 0
 161 0004 034B     		ldr	r3, .L8
 162 0006 0022     		mov	r2, #0
 163 0008 5A70     		strb	r2, [r3, #1]
1158:.\Generated_Source\PSoC4/BLE_eventHandler.c ****     cyBle_connHandle.bdHandle = 0u;
 164              		.loc 1 1158 0
 165 000a 024B     		ldr	r3, .L8
 166 000c 0022     		mov	r2, #0
 167 000e 1A70     		strb	r2, [r3]
1159:.\Generated_Source\PSoC4/BLE_eventHandler.c ****     
1160:.\Generated_Source\PSoC4/BLE_eventHandler.c ****     #if (CYBLE_GATT_ROLE_CLIENT)
1161:.\Generated_Source\PSoC4/BLE_eventHandler.c ****         if(CYBLE_CLIENT_STATE_DISCOVERED == CyBle_GetClientState())
1162:.\Generated_Source\PSoC4/BLE_eventHandler.c ****         {
1163:.\Generated_Source\PSoC4/BLE_eventHandler.c ****             CyBle_SetClientState(CYBLE_CLIENT_STATE_DISCONNECTED_DISCOVERED);
1164:.\Generated_Source\PSoC4/BLE_eventHandler.c ****         }
1165:.\Generated_Source\PSoC4/BLE_eventHandler.c ****         else
1166:.\Generated_Source\PSoC4/BLE_eventHandler.c ****         {
1167:.\Generated_Source\PSoC4/BLE_eventHandler.c ****             CyBle_SetClientState(CYBLE_CLIENT_STATE_DISCONNECTED);
1168:.\Generated_Source\PSoC4/BLE_eventHandler.c ****         }
1169:.\Generated_Source\PSoC4/BLE_eventHandler.c ****     #endif /* CYBLE_GATT_ROLE_CLIENT */
1170:.\Generated_Source\PSoC4/BLE_eventHandler.c ****         
1171:.\Generated_Source\PSoC4/BLE_eventHandler.c ****     #ifdef CYBLE_CPS_SERVER
1172:.\Generated_Source\PSoC4/BLE_eventHandler.c ****         #if CYBLE_GAP_ROLE_BROADCASTER
1173:.\Generated_Source\PSoC4/BLE_eventHandler.c ****             CyBle_CpssDisconnectEventHandler();
1174:.\Generated_Source\PSoC4/BLE_eventHandler.c ****         #endif /* CYBLE_GAP_ROLE_BROADCASTER */
1175:.\Generated_Source\PSoC4/BLE_eventHandler.c ****     #endif /* CYBLE_CPS_SERVER */
1176:.\Generated_Source\PSoC4/BLE_eventHandler.c **** 
1177:.\Generated_Source\PSoC4/BLE_eventHandler.c ****     #ifdef CYBLE_CPS_CLIENT
1178:.\Generated_Source\PSoC4/BLE_eventHandler.c ****         CyBle_CpscDisconnectEventHandler();
1179:.\Generated_Source\PSoC4/BLE_eventHandler.c ****     #endif /* CYBLE_CPS_CLIENT */
1180:.\Generated_Source\PSoC4/BLE_eventHandler.c **** 
1181:.\Generated_Source\PSoC4/BLE_eventHandler.c ****     #ifdef CYBLE_IAS_SERVER
1182:.\Generated_Source\PSoC4/BLE_eventHandler.c ****         CyBle_IassDisconnectEventHandler();
1183:.\Generated_Source\PSoC4/BLE_eventHandler.c ****     #endif /* CYBLE_IAS_SERVER */
1184:.\Generated_Source\PSoC4/BLE_eventHandler.c ****     
1185:.\Generated_Source\PSoC4/BLE_eventHandler.c ****     #ifdef CYBLE_GLS_SERVER
1186:.\Generated_Source\PSoC4/BLE_eventHandler.c ****         CyBle_GlsInit();
1187:.\Generated_Source\PSoC4/BLE_eventHandler.c ****     #endif /* CYBLE_GLS_SERVER */
1188:.\Generated_Source\PSoC4/BLE_eventHandler.c ****     
1189:.\Generated_Source\PSoC4/BLE_eventHandler.c ****     #ifdef CYBLE_LNS_SERVER
1190:.\Generated_Source\PSoC4/BLE_eventHandler.c ****         CyBle_LnsInit();
1191:.\Generated_Source\PSoC4/BLE_eventHandler.c ****     #endif /* CYBLE_LNS_SERVER */
1192:.\Generated_Source\PSoC4/BLE_eventHandler.c ****     
1193:.\Generated_Source\PSoC4/BLE_eventHandler.c ****     #ifdef CYBLE_UDS_SERVER
1194:.\Generated_Source\PSoC4/BLE_eventHandler.c ****         CyBle_UdsInit();
1195:.\Generated_Source\PSoC4/BLE_eventHandler.c ****     #endif /* CYBLE_UDS_SERVER */
1196:.\Generated_Source\PSoC4/BLE_eventHandler.c **** }
 168              		.loc 1 1196 0
 169 0010 BD46     		mov	sp, r7
 170              		@ sp needed
 171 0012 80BD     		pop	{r7, pc}
 172              	.L9:
ARM GAS  C:\Users\Kevin\AppData\Local\Temp\ccJ9qp0a.s 			page 25


 173              		.align	2
 174              	.L8:
 175 0014 00000000 		.word	cyBle_connHandle
 176              		.cfi_endproc
 177              	.LFE4:
 178              		.size	CyBle_GattDisconnectEventHandler, .-CyBle_GattDisconnectEventHandler
 179              		.section	.text.CyBle_TimeOutEventHandler,"ax",%progbits
 180              		.align	2
 181              		.code	16
 182              		.thumb_func
 183              		.type	CyBle_TimeOutEventHandler, %function
 184              	CyBle_TimeOutEventHandler:
 185              	.LFB5:
1197:.\Generated_Source\PSoC4/BLE_eventHandler.c **** 
1198:.\Generated_Source\PSoC4/BLE_eventHandler.c **** 
1199:.\Generated_Source\PSoC4/BLE_eventHandler.c **** /****************************************************************************** 
1200:.\Generated_Source\PSoC4/BLE_eventHandler.c **** * Function Name: CyBle_TimeOutEventHandler
1201:.\Generated_Source\PSoC4/BLE_eventHandler.c **** ***************************************************************************//**
1202:.\Generated_Source\PSoC4/BLE_eventHandler.c **** * 
1203:.\Generated_Source\PSoC4/BLE_eventHandler.c **** *  Handles the CYBLE_EVT_TIMEOUT event from the BLE stack.
1204:.\Generated_Source\PSoC4/BLE_eventHandler.c **** * 
1205:.\Generated_Source\PSoC4/BLE_eventHandler.c **** *  *eventParam - The pointer to a structure of type CYBLE_TO_REASON_CODE_T.
1206:.\Generated_Source\PSoC4/BLE_eventHandler.c **** * 
1207:.\Generated_Source\PSoC4/BLE_eventHandler.c **** * \return
1208:.\Generated_Source\PSoC4/BLE_eventHandler.c **** *  None
1209:.\Generated_Source\PSoC4/BLE_eventHandler.c **** * 
1210:.\Generated_Source\PSoC4/BLE_eventHandler.c **** ******************************************************************************/
1211:.\Generated_Source\PSoC4/BLE_eventHandler.c **** static void CyBle_TimeOutEventHandler(const CYBLE_TO_REASON_CODE_T *eventParam)
1212:.\Generated_Source\PSoC4/BLE_eventHandler.c **** {
 186              		.loc 1 1212 0
 187              		.cfi_startproc
 188 0000 80B5     		push	{r7, lr}
 189              		.cfi_def_cfa_offset 8
 190              		.cfi_offset 7, -8
 191              		.cfi_offset 14, -4
 192 0002 82B0     		sub	sp, sp, #8
 193              		.cfi_def_cfa_offset 16
 194 0004 00AF     		add	r7, sp, #0
 195              		.cfi_def_cfa_register 7
 196 0006 7860     		str	r0, [r7, #4]
1213:.\Generated_Source\PSoC4/BLE_eventHandler.c ****     if(*eventParam == CYBLE_GATT_RSP_TO)
1214:.\Generated_Source\PSoC4/BLE_eventHandler.c ****     {
1215:.\Generated_Source\PSoC4/BLE_eventHandler.c ****     #if (CYBLE_GATT_ROLE_CLIENT)
1216:.\Generated_Source\PSoC4/BLE_eventHandler.c ****         if((cyBle_eventHandlerFlag & CYBLE_AUTO_DISCOVERY) != 0u)
1217:.\Generated_Source\PSoC4/BLE_eventHandler.c ****         {
1218:.\Generated_Source\PSoC4/BLE_eventHandler.c ****             switch(CyBle_GetClientState())
1219:.\Generated_Source\PSoC4/BLE_eventHandler.c ****             {
1220:.\Generated_Source\PSoC4/BLE_eventHandler.c ****                 case CYBLE_CLIENT_STATE_SRVC_DISCOVERING:
1221:.\Generated_Source\PSoC4/BLE_eventHandler.c ****                     CyBle_ApplCallback(CYBLE_EVT_GATTC_SRVC_DISCOVERY_FAILED, NULL);
1222:.\Generated_Source\PSoC4/BLE_eventHandler.c ****                     break;
1223:.\Generated_Source\PSoC4/BLE_eventHandler.c ****                 case CYBLE_CLIENT_STATE_INCL_DISCOVERING:
1224:.\Generated_Source\PSoC4/BLE_eventHandler.c ****                     CyBle_ApplCallback(CYBLE_EVT_GATTC_INCL_DISCOVERY_FAILED, NULL);
1225:.\Generated_Source\PSoC4/BLE_eventHandler.c ****                     break;
1226:.\Generated_Source\PSoC4/BLE_eventHandler.c ****                 case CYBLE_CLIENT_STATE_CHAR_DISCOVERING:
1227:.\Generated_Source\PSoC4/BLE_eventHandler.c ****                     CyBle_ApplCallback(CYBLE_EVT_GATTC_CHAR_DISCOVERY_FAILED, NULL);
1228:.\Generated_Source\PSoC4/BLE_eventHandler.c ****                     break;
1229:.\Generated_Source\PSoC4/BLE_eventHandler.c ****                 case CYBLE_CLIENT_STATE_DESCR_DISCOVERING:
ARM GAS  C:\Users\Kevin\AppData\Local\Temp\ccJ9qp0a.s 			page 26


1230:.\Generated_Source\PSoC4/BLE_eventHandler.c ****                     CyBle_ApplCallback(CYBLE_EVT_GATTC_DESCR_DISCOVERY_FAILED, NULL);
1231:.\Generated_Source\PSoC4/BLE_eventHandler.c ****                     break;
1232:.\Generated_Source\PSoC4/BLE_eventHandler.c ****                 default:        /* Other states should not be set in Auto discovery mode */
1233:.\Generated_Source\PSoC4/BLE_eventHandler.c ****                     break;
1234:.\Generated_Source\PSoC4/BLE_eventHandler.c ****             }
1235:.\Generated_Source\PSoC4/BLE_eventHandler.c ****             cyBle_eventHandlerFlag &= (uint8)~CYBLE_AUTO_DISCOVERY;
1236:.\Generated_Source\PSoC4/BLE_eventHandler.c ****             CyBle_SetClientState(CYBLE_CLIENT_STATE_CONNECTED);
1237:.\Generated_Source\PSoC4/BLE_eventHandler.c ****         }
1238:.\Generated_Source\PSoC4/BLE_eventHandler.c ****     #endif /* CYBLE_GATT_ROLE_CLIENT */
1239:.\Generated_Source\PSoC4/BLE_eventHandler.c ****     #ifdef CYBLE_CPS_SERVER
1240:.\Generated_Source\PSoC4/BLE_eventHandler.c ****         CyBle_CpssTimeOutEventHandler();
1241:.\Generated_Source\PSoC4/BLE_eventHandler.c ****     #endif /* CYBLE_CPS_SERVER */
1242:.\Generated_Source\PSoC4/BLE_eventHandler.c ****     }
1243:.\Generated_Source\PSoC4/BLE_eventHandler.c ****     
1244:.\Generated_Source\PSoC4/BLE_eventHandler.c ****     /* Connection procedure timeout */
1245:.\Generated_Source\PSoC4/BLE_eventHandler.c ****     if(*eventParam == CYBLE_GENERIC_TO)
1246:.\Generated_Source\PSoC4/BLE_eventHandler.c ****     {
1247:.\Generated_Source\PSoC4/BLE_eventHandler.c ****     #if(CYBLE_GAP_ROLE_CENTRAL)
1248:.\Generated_Source\PSoC4/BLE_eventHandler.c ****         if(CYBLE_STATE_CONNECTING == CyBle_GetState())
1249:.\Generated_Source\PSoC4/BLE_eventHandler.c ****         {
1250:.\Generated_Source\PSoC4/BLE_eventHandler.c ****             (void)CyBle_GapcCancelDeviceConnection();
1251:.\Generated_Source\PSoC4/BLE_eventHandler.c ****         }
1252:.\Generated_Source\PSoC4/BLE_eventHandler.c ****     #endif /* CYBLE_GAP_ROLE_CENTRAL */
1253:.\Generated_Source\PSoC4/BLE_eventHandler.c ****     }
1254:.\Generated_Source\PSoC4/BLE_eventHandler.c **** }
 197              		.loc 1 1254 0
 198 0008 BD46     		mov	sp, r7
 199 000a 02B0     		add	sp, sp, #8
 200              		@ sp needed
 201 000c 80BD     		pop	{r7, pc}
 202              		.cfi_endproc
 203              	.LFE5:
 204              		.size	CyBle_TimeOutEventHandler, .-CyBle_TimeOutEventHandler
 205              		.section	.text.CyBle_GattConnectReqHandler,"ax",%progbits
 206              		.align	2
 207              		.code	16
 208              		.thumb_func
 209              		.type	CyBle_GattConnectReqHandler, %function
 210              	CyBle_GattConnectReqHandler:
 211              	.LFB6:
1255:.\Generated_Source\PSoC4/BLE_eventHandler.c **** 
1256:.\Generated_Source\PSoC4/BLE_eventHandler.c **** 
1257:.\Generated_Source\PSoC4/BLE_eventHandler.c **** /****************************************************************************** 
1258:.\Generated_Source\PSoC4/BLE_eventHandler.c **** * Function Name: CyBle_GattConnectReqHandler
1259:.\Generated_Source\PSoC4/BLE_eventHandler.c **** ***************************************************************************//**
1260:.\Generated_Source\PSoC4/BLE_eventHandler.c **** * 
1261:.\Generated_Source\PSoC4/BLE_eventHandler.c **** *  Handles the GATT connect event from the BLE stack.
1262:.\Generated_Source\PSoC4/BLE_eventHandler.c **** * 
1263:.\Generated_Source\PSoC4/BLE_eventHandler.c **** * \return
1264:.\Generated_Source\PSoC4/BLE_eventHandler.c **** *  None
1265:.\Generated_Source\PSoC4/BLE_eventHandler.c **** * 
1266:.\Generated_Source\PSoC4/BLE_eventHandler.c **** ******************************************************************************/
1267:.\Generated_Source\PSoC4/BLE_eventHandler.c **** static void CyBle_GattConnectReqHandler(void)
1268:.\Generated_Source\PSoC4/BLE_eventHandler.c **** {
 212              		.loc 1 1268 0
 213              		.cfi_startproc
 214 0000 80B5     		push	{r7, lr}
ARM GAS  C:\Users\Kevin\AppData\Local\Temp\ccJ9qp0a.s 			page 27


 215              		.cfi_def_cfa_offset 8
 216              		.cfi_offset 7, -8
 217              		.cfi_offset 14, -4
 218 0002 00AF     		add	r7, sp, #0
 219              		.cfi_def_cfa_register 7
1269:.\Generated_Source\PSoC4/BLE_eventHandler.c ****     #ifdef CYBLE_CGMS_SERVER
1270:.\Generated_Source\PSoC4/BLE_eventHandler.c ****         CyBle_CgmsInit();
1271:.\Generated_Source\PSoC4/BLE_eventHandler.c ****     #endif /* CYBLE_CGMS_SERVER */
1272:.\Generated_Source\PSoC4/BLE_eventHandler.c ****     
1273:.\Generated_Source\PSoC4/BLE_eventHandler.c ****     #ifdef CYBLE_CPS_SERVER
1274:.\Generated_Source\PSoC4/BLE_eventHandler.c ****         CyBle_CpssConnectEventHandler();
1275:.\Generated_Source\PSoC4/BLE_eventHandler.c ****     #endif /* CYBLE_CPS_SERVER */
1276:.\Generated_Source\PSoC4/BLE_eventHandler.c ****     
1277:.\Generated_Source\PSoC4/BLE_eventHandler.c ****     #ifdef CYBLE_CSCS_SERVER
1278:.\Generated_Source\PSoC4/BLE_eventHandler.c ****             CyBle_CscsInit();
1279:.\Generated_Source\PSoC4/BLE_eventHandler.c ****     #endif /* CYBLE_CSCS_SERVER */
1280:.\Generated_Source\PSoC4/BLE_eventHandler.c ****     
1281:.\Generated_Source\PSoC4/BLE_eventHandler.c ****     #ifdef CYBLE_LLS_SERVER
1282:.\Generated_Source\PSoC4/BLE_eventHandler.c ****         CyBle_LlssConnectEventHandler();
1283:.\Generated_Source\PSoC4/BLE_eventHandler.c ****     #endif /* CYBLE_LLS_SERVER */
1284:.\Generated_Source\PSoC4/BLE_eventHandler.c ****     
1285:.\Generated_Source\PSoC4/BLE_eventHandler.c ****     #ifdef CYBLE_HIDS_SERVER
1286:.\Generated_Source\PSoC4/BLE_eventHandler.c ****         CyBle_HidssOnDeviceConnected();
1287:.\Generated_Source\PSoC4/BLE_eventHandler.c ****     #endif /* CYBLE_HIDS_SERVER */
1288:.\Generated_Source\PSoC4/BLE_eventHandler.c **** 
1289:.\Generated_Source\PSoC4/BLE_eventHandler.c ****     #ifdef CYBLE_RSCS_SERVER
1290:.\Generated_Source\PSoC4/BLE_eventHandler.c ****         CyBle_RscsInit();
1291:.\Generated_Source\PSoC4/BLE_eventHandler.c ****     #endif /* CYBLE_RSCS_SERVER */
1292:.\Generated_Source\PSoC4/BLE_eventHandler.c **** }
 220              		.loc 1 1292 0
 221 0004 BD46     		mov	sp, r7
 222              		@ sp needed
 223 0006 80BD     		pop	{r7, pc}
 224              		.cfi_endproc
 225              	.LFE6:
 226              		.size	CyBle_GattConnectReqHandler, .-CyBle_GattConnectReqHandler
 227              		.section	.text.CyBle_IsDeviceAddressValid,"ax",%progbits
 228              		.align	2
 229              		.code	16
 230              		.thumb_func
 231              		.type	CyBle_IsDeviceAddressValid, %function
 232              	CyBle_IsDeviceAddressValid:
 233              	.LFB7:
1293:.\Generated_Source\PSoC4/BLE_eventHandler.c **** 
1294:.\Generated_Source\PSoC4/BLE_eventHandler.c **** 
1295:.\Generated_Source\PSoC4/BLE_eventHandler.c **** #if (CYBLE_GATT_ROLE_SERVER || CYBLE_GATT_ROLE_CLIENT)
1296:.\Generated_Source\PSoC4/BLE_eventHandler.c **** 
1297:.\Generated_Source\PSoC4/BLE_eventHandler.c **** /****************************************************************************** 
1298:.\Generated_Source\PSoC4/BLE_eventHandler.c **** * Function Name: CyBle_IsDeviceAddressValid
1299:.\Generated_Source\PSoC4/BLE_eventHandler.c **** ***************************************************************************//**
1300:.\Generated_Source\PSoC4/BLE_eventHandler.c **** * 
1301:.\Generated_Source\PSoC4/BLE_eventHandler.c **** *  This function verifies that BLE public address has been programmed to SFLASH 
1302:.\Generated_Source\PSoC4/BLE_eventHandler.c **** *  during manufacture.
1303:.\Generated_Source\PSoC4/BLE_eventHandler.c **** * 
1304:.\Generated_Source\PSoC4/BLE_eventHandler.c **** *  \param CYBLE_GAP_BD_ADDR_T *sflashDeviceAddress: the pointer to the BD address of 
1305:.\Generated_Source\PSoC4/BLE_eventHandler.c **** *                                            type CYBLE_GAP_BD_ADDR_T. 
1306:.\Generated_Source\PSoC4/BLE_eventHandler.c **** * 
ARM GAS  C:\Users\Kevin\AppData\Local\Temp\ccJ9qp0a.s 			page 28


1307:.\Generated_Source\PSoC4/BLE_eventHandler.c **** * \return
1308:.\Generated_Source\PSoC4/BLE_eventHandler.c **** *  Non zero value when a device address differs from the default SFLASH content.
1309:.\Generated_Source\PSoC4/BLE_eventHandler.c **** * 
1310:.\Generated_Source\PSoC4/BLE_eventHandler.c **** ******************************************************************************/
1311:.\Generated_Source\PSoC4/BLE_eventHandler.c **** static uint8 CyBle_IsDeviceAddressValid(const CYBLE_GAP_BD_ADDR_T *sflashDeviceAddress)
1312:.\Generated_Source\PSoC4/BLE_eventHandler.c **** {
 234              		.loc 1 1312 0
 235              		.cfi_startproc
 236 0000 80B5     		push	{r7, lr}
 237              		.cfi_def_cfa_offset 8
 238              		.cfi_offset 7, -8
 239              		.cfi_offset 14, -4
 240 0002 84B0     		sub	sp, sp, #16
 241              		.cfi_def_cfa_offset 24
 242 0004 00AF     		add	r7, sp, #0
 243              		.cfi_def_cfa_register 7
 244 0006 7860     		str	r0, [r7, #4]
1313:.\Generated_Source\PSoC4/BLE_eventHandler.c ****     uint8 i;
1314:.\Generated_Source\PSoC4/BLE_eventHandler.c ****     uint8 sflashAddressValid = 0u;
 245              		.loc 1 1314 0
 246 0008 0E23     		mov	r3, #14
 247 000a FB18     		add	r3, r7, r3
 248 000c 0022     		mov	r2, #0
 249 000e 1A70     		strb	r2, [r3]
1315:.\Generated_Source\PSoC4/BLE_eventHandler.c ****     
1316:.\Generated_Source\PSoC4/BLE_eventHandler.c ****     if(sflashDeviceAddress -> type == CYBLE_GAP_ADDR_TYPE_PUBLIC)  
 250              		.loc 1 1316 0
 251 0010 7B68     		ldr	r3, [r7, #4]
 252 0012 9B79     		ldrb	r3, [r3, #6]
 253 0014 002B     		cmp	r3, #0
 254 0016 1CD1     		bne	.L13
1317:.\Generated_Source\PSoC4/BLE_eventHandler.c ****     {
1318:.\Generated_Source\PSoC4/BLE_eventHandler.c ****         for(i = 0u; i < CYBLE_GAP_BD_ADDR_SIZE; i++)
 255              		.loc 1 1318 0
 256 0018 0F23     		mov	r3, #15
 257 001a FB18     		add	r3, r7, r3
 258 001c 0022     		mov	r2, #0
 259 001e 1A70     		strb	r2, [r3]
 260 0020 12E0     		b	.L14
 261              	.L16:
1319:.\Generated_Source\PSoC4/BLE_eventHandler.c ****         {
1320:.\Generated_Source\PSoC4/BLE_eventHandler.c ****             if(sflashDeviceAddress->bdAddr[i] != 0u)
 262              		.loc 1 1320 0
 263 0022 0F23     		mov	r3, #15
 264 0024 FB18     		add	r3, r7, r3
 265 0026 1B78     		ldrb	r3, [r3]
 266 0028 7A68     		ldr	r2, [r7, #4]
 267 002a D35C     		ldrb	r3, [r2, r3]
 268 002c 002B     		cmp	r3, #0
 269 002e 04D0     		beq	.L15
1321:.\Generated_Source\PSoC4/BLE_eventHandler.c ****             {
1322:.\Generated_Source\PSoC4/BLE_eventHandler.c ****                 sflashAddressValid = 1u;
 270              		.loc 1 1322 0
 271 0030 0E23     		mov	r3, #14
 272 0032 FB18     		add	r3, r7, r3
 273 0034 0122     		mov	r2, #1
 274 0036 1A70     		strb	r2, [r3]
ARM GAS  C:\Users\Kevin\AppData\Local\Temp\ccJ9qp0a.s 			page 29


1323:.\Generated_Source\PSoC4/BLE_eventHandler.c ****                 break;
 275              		.loc 1 1323 0
 276 0038 0BE0     		b	.L13
 277              	.L15:
1318:.\Generated_Source\PSoC4/BLE_eventHandler.c ****         {
 278              		.loc 1 1318 0 discriminator 2
 279 003a 0F23     		mov	r3, #15
 280 003c FB18     		add	r3, r7, r3
 281 003e 1A78     		ldrb	r2, [r3]
 282 0040 0F23     		mov	r3, #15
 283 0042 FB18     		add	r3, r7, r3
 284 0044 0132     		add	r2, r2, #1
 285 0046 1A70     		strb	r2, [r3]
 286              	.L14:
1318:.\Generated_Source\PSoC4/BLE_eventHandler.c ****         {
 287              		.loc 1 1318 0 is_stmt 0 discriminator 1
 288 0048 0F23     		mov	r3, #15
 289 004a FB18     		add	r3, r7, r3
 290 004c 1B78     		ldrb	r3, [r3]
 291 004e 052B     		cmp	r3, #5
 292 0050 E7D9     		bls	.L16
 293              	.L13:
1324:.\Generated_Source\PSoC4/BLE_eventHandler.c ****             }
1325:.\Generated_Source\PSoC4/BLE_eventHandler.c ****         }
1326:.\Generated_Source\PSoC4/BLE_eventHandler.c ****     }
1327:.\Generated_Source\PSoC4/BLE_eventHandler.c ****     return (sflashAddressValid);
 294              		.loc 1 1327 0 is_stmt 1
 295 0052 0E23     		mov	r3, #14
 296 0054 FB18     		add	r3, r7, r3
 297 0056 1B78     		ldrb	r3, [r3]
1328:.\Generated_Source\PSoC4/BLE_eventHandler.c **** }
 298              		.loc 1 1328 0
 299 0058 181C     		mov	r0, r3
 300 005a BD46     		mov	sp, r7
 301 005c 04B0     		add	sp, sp, #16
 302              		@ sp needed
 303 005e 80BD     		pop	{r7, pc}
 304              		.cfi_endproc
 305              	.LFE7:
 306              		.size	CyBle_IsDeviceAddressValid, .-CyBle_IsDeviceAddressValid
 307              		.section	.text.CyBle_L2Cap_ConnParamUpdateRspEventHandler,"ax",%progbits
 308              		.align	2
 309              		.code	16
 310              		.thumb_func
 311              		.type	CyBle_L2Cap_ConnParamUpdateRspEventHandler, %function
 312              	CyBle_L2Cap_ConnParamUpdateRspEventHandler:
 313              	.LFB8:
1329:.\Generated_Source\PSoC4/BLE_eventHandler.c **** #endif /* CYBLE_GATT_ROLE_SERVER || CYBLE_GATT_ROLE_CLIENT */
1330:.\Generated_Source\PSoC4/BLE_eventHandler.c **** 
1331:.\Generated_Source\PSoC4/BLE_eventHandler.c **** 
1332:.\Generated_Source\PSoC4/BLE_eventHandler.c **** /****************************************************************************** 
1333:.\Generated_Source\PSoC4/BLE_eventHandler.c **** * Function Name: CyBle_L2Cap_ConnParamUpdateRspHandler
1334:.\Generated_Source\PSoC4/BLE_eventHandler.c **** ***************************************************************************//**
1335:.\Generated_Source\PSoC4/BLE_eventHandler.c **** * 
1336:.\Generated_Source\PSoC4/BLE_eventHandler.c **** *  Handles the L2CAP connection parameter response event from
1337:.\Generated_Source\PSoC4/BLE_eventHandler.c **** *  the BLE stack.
1338:.\Generated_Source\PSoC4/BLE_eventHandler.c **** * 
ARM GAS  C:\Users\Kevin\AppData\Local\Temp\ccJ9qp0a.s 			page 30


1339:.\Generated_Source\PSoC4/BLE_eventHandler.c **** *  \param uint16 response:
1340:.\Generated_Source\PSoC4/BLE_eventHandler.c **** *      * Accepted = 0x0000
1341:.\Generated_Source\PSoC4/BLE_eventHandler.c **** *      * Rejected = 0x0001
1342:.\Generated_Source\PSoC4/BLE_eventHandler.c **** * 
1343:.\Generated_Source\PSoC4/BLE_eventHandler.c **** * \return
1344:.\Generated_Source\PSoC4/BLE_eventHandler.c **** *  None
1345:.\Generated_Source\PSoC4/BLE_eventHandler.c **** * 
1346:.\Generated_Source\PSoC4/BLE_eventHandler.c **** ******************************************************************************/
1347:.\Generated_Source\PSoC4/BLE_eventHandler.c **** static void CyBle_L2Cap_ConnParamUpdateRspEventHandler(uint16 response)
1348:.\Generated_Source\PSoC4/BLE_eventHandler.c **** {
 314              		.loc 1 1348 0
 315              		.cfi_startproc
 316 0000 80B5     		push	{r7, lr}
 317              		.cfi_def_cfa_offset 8
 318              		.cfi_offset 7, -8
 319              		.cfi_offset 14, -4
 320 0002 82B0     		sub	sp, sp, #8
 321              		.cfi_def_cfa_offset 16
 322 0004 00AF     		add	r7, sp, #0
 323              		.cfi_def_cfa_register 7
 324 0006 021C     		mov	r2, r0
 325 0008 BB1D     		add	r3, r7, #6
 326 000a 1A80     		strh	r2, [r3]
1349:.\Generated_Source\PSoC4/BLE_eventHandler.c ****     #ifdef CYBLE_CPS_SERVER
1350:.\Generated_Source\PSoC4/BLE_eventHandler.c ****         CyBle_CpssConnParamUpdateRspEventHandler(response);
1351:.\Generated_Source\PSoC4/BLE_eventHandler.c ****     #endif /* CYBLE_CPS_SERVER */
1352:.\Generated_Source\PSoC4/BLE_eventHandler.c ****     
1353:.\Generated_Source\PSoC4/BLE_eventHandler.c ****     /* Unreferenced variable warning workaround */
1354:.\Generated_Source\PSoC4/BLE_eventHandler.c ****     if(response != 0u)
1355:.\Generated_Source\PSoC4/BLE_eventHandler.c ****     {
1356:.\Generated_Source\PSoC4/BLE_eventHandler.c ****     }
1357:.\Generated_Source\PSoC4/BLE_eventHandler.c **** }
 327              		.loc 1 1357 0
 328 000c BD46     		mov	sp, r7
 329 000e 02B0     		add	sp, sp, #8
 330              		@ sp needed
 331 0010 80BD     		pop	{r7, pc}
 332              		.cfi_endproc
 333              	.LFE8:
 334              		.size	CyBle_L2Cap_ConnParamUpdateRspEventHandler, .-CyBle_L2Cap_ConnParamUpdateRspEventHandler
 335 0012 C046     		.section	.text.CyBle_GapConnUpdateCompleteEventHandler,"ax",%progbits
 336              		.align	2
 337              		.code	16
 338              		.thumb_func
 339              		.type	CyBle_GapConnUpdateCompleteEventHandler, %function
 340              	CyBle_GapConnUpdateCompleteEventHandler:
 341              	.LFB9:
1358:.\Generated_Source\PSoC4/BLE_eventHandler.c **** 
1359:.\Generated_Source\PSoC4/BLE_eventHandler.c **** 
1360:.\Generated_Source\PSoC4/BLE_eventHandler.c **** /****************************************************************************** 
1361:.\Generated_Source\PSoC4/BLE_eventHandler.c **** * Function Name: CyBle_GapConnUpdateCompleteEventHandler
1362:.\Generated_Source\PSoC4/BLE_eventHandler.c **** ***************************************************************************//**
1363:.\Generated_Source\PSoC4/BLE_eventHandler.c **** * 
1364:.\Generated_Source\PSoC4/BLE_eventHandler.c **** *  Handles the CYBLE_EVT_GAP_CONNECTION_UPDATE_COMPLETE event from
1365:.\Generated_Source\PSoC4/BLE_eventHandler.c **** *  the BLE stack.
1366:.\Generated_Source\PSoC4/BLE_eventHandler.c **** * 
1367:.\Generated_Source\PSoC4/BLE_eventHandler.c **** *  \param *eventParam: The pointer to the data structure specified by the event.
ARM GAS  C:\Users\Kevin\AppData\Local\Temp\ccJ9qp0a.s 			page 31


1368:.\Generated_Source\PSoC4/BLE_eventHandler.c **** * 
1369:.\Generated_Source\PSoC4/BLE_eventHandler.c **** * \return
1370:.\Generated_Source\PSoC4/BLE_eventHandler.c **** *  None
1371:.\Generated_Source\PSoC4/BLE_eventHandler.c **** * 
1372:.\Generated_Source\PSoC4/BLE_eventHandler.c **** ******************************************************************************/
1373:.\Generated_Source\PSoC4/BLE_eventHandler.c **** static void CyBle_GapConnUpdateCompleteEventHandler(const CYBLE_GAP_CONN_PARAM_UPDATED_IN_CONTROLLE
1374:.\Generated_Source\PSoC4/BLE_eventHandler.c **** {
 342              		.loc 1 1374 0
 343              		.cfi_startproc
 344 0000 80B5     		push	{r7, lr}
 345              		.cfi_def_cfa_offset 8
 346              		.cfi_offset 7, -8
 347              		.cfi_offset 14, -4
 348 0002 82B0     		sub	sp, sp, #8
 349              		.cfi_def_cfa_offset 16
 350 0004 00AF     		add	r7, sp, #0
 351              		.cfi_def_cfa_register 7
 352 0006 7860     		str	r0, [r7, #4]
1375:.\Generated_Source\PSoC4/BLE_eventHandler.c ****     #ifdef CYBLE_CPS_SERVER
1376:.\Generated_Source\PSoC4/BLE_eventHandler.c ****         CyBle_CpssConnUpdateCompleteEventHandler(eventParam);
1377:.\Generated_Source\PSoC4/BLE_eventHandler.c ****     #endif /* CYBLE_CPS_SERVER */
1378:.\Generated_Source\PSoC4/BLE_eventHandler.c ****     
1379:.\Generated_Source\PSoC4/BLE_eventHandler.c ****     /* Unreferenced variable warning workaround */
1380:.\Generated_Source\PSoC4/BLE_eventHandler.c ****     if(eventParam != 0u)
1381:.\Generated_Source\PSoC4/BLE_eventHandler.c ****     {
1382:.\Generated_Source\PSoC4/BLE_eventHandler.c ****     }
1383:.\Generated_Source\PSoC4/BLE_eventHandler.c **** }
 353              		.loc 1 1383 0
 354 0008 BD46     		mov	sp, r7
 355 000a 02B0     		add	sp, sp, #8
 356              		@ sp needed
 357 000c 80BD     		pop	{r7, pc}
 358              		.cfi_endproc
 359              	.LFE9:
 360              		.size	CyBle_GapConnUpdateCompleteEventHandler, .-CyBle_GapConnUpdateCompleteEventHandler
 361              		.section	.text.CyBle_EventHandler,"ax",%progbits
 362              		.align	2
 363              		.global	CyBle_EventHandler
 364              		.code	16
 365              		.thumb_func
 366              		.type	CyBle_EventHandler, %function
 367              	CyBle_EventHandler:
 368              	.LFB10:
1384:.\Generated_Source\PSoC4/BLE_eventHandler.c **** 
1385:.\Generated_Source\PSoC4/BLE_eventHandler.c **** 
1386:.\Generated_Source\PSoC4/BLE_eventHandler.c **** /****************************************************************************** 
1387:.\Generated_Source\PSoC4/BLE_eventHandler.c **** * Function Name: CyBle_EventHandler
1388:.\Generated_Source\PSoC4/BLE_eventHandler.c **** ***************************************************************************//**
1389:.\Generated_Source\PSoC4/BLE_eventHandler.c **** * 
1390:.\Generated_Source\PSoC4/BLE_eventHandler.c **** *  Handles the events from the BLE stack
1391:.\Generated_Source\PSoC4/BLE_eventHandler.c **** * 
1392:.\Generated_Source\PSoC4/BLE_eventHandler.c **** *  \param eventCode:    the event code
1393:.\Generated_Source\PSoC4/BLE_eventHandler.c **** *  \param *eventParam:  the event parameters
1394:.\Generated_Source\PSoC4/BLE_eventHandler.c **** * 
1395:.\Generated_Source\PSoC4/BLE_eventHandler.c **** * \return
1396:.\Generated_Source\PSoC4/BLE_eventHandler.c **** *  None.
1397:.\Generated_Source\PSoC4/BLE_eventHandler.c **** * 
ARM GAS  C:\Users\Kevin\AppData\Local\Temp\ccJ9qp0a.s 			page 32


1398:.\Generated_Source\PSoC4/BLE_eventHandler.c **** ******************************************************************************/
1399:.\Generated_Source\PSoC4/BLE_eventHandler.c **** void CyBle_EventHandler(uint8 eventCode, void *eventParam)
1400:.\Generated_Source\PSoC4/BLE_eventHandler.c **** {
 369              		.loc 1 1400 0
 370              		.cfi_startproc
 371 0000 80B5     		push	{r7, lr}
 372              		.cfi_def_cfa_offset 8
 373              		.cfi_offset 7, -8
 374              		.cfi_offset 14, -4
 375 0002 84B0     		sub	sp, sp, #16
 376              		.cfi_def_cfa_offset 24
 377 0004 00AF     		add	r7, sp, #0
 378              		.cfi_def_cfa_register 7
 379 0006 021C     		mov	r2, r0
 380 0008 3960     		str	r1, [r7]
 381 000a FB1D     		add	r3, r7, #7
 382 000c 1A70     		strb	r2, [r3]
1401:.\Generated_Source\PSoC4/BLE_eventHandler.c ****     cyBle_eventHandlerFlag |= CYBLE_CALLBACK;
 383              		.loc 1 1401 0
 384 000e 9E4B     		ldr	r3, .L54
 385 0010 1B78     		ldrb	r3, [r3]
 386 0012 DBB2     		uxtb	r3, r3
 387 0014 0122     		mov	r2, #1
 388 0016 1343     		orr	r3, r2
 389 0018 DAB2     		uxtb	r2, r3
 390 001a 9B4B     		ldr	r3, .L54
 391 001c 1A70     		strb	r2, [r3]
1402:.\Generated_Source\PSoC4/BLE_eventHandler.c **** 
1403:.\Generated_Source\PSoC4/BLE_eventHandler.c ****     /* Common Profile event handling */
1404:.\Generated_Source\PSoC4/BLE_eventHandler.c ****     switch(eventCode)
 392              		.loc 1 1404 0
 393 001e FB1D     		add	r3, r7, #7
 394 0020 1B78     		ldrb	r3, [r3]
 395 0022 712B     		cmp	r3, #113
 396 0024 00D9     		bls	.LCB325
 397 0026 14E1     		b	.L53	@long jump
 398              	.LCB325:
 399 0028 9A00     		lsl	r2, r3, #2
 400 002a 984B     		ldr	r3, .L54+4
 401 002c D318     		add	r3, r2, r3
 402 002e 1B68     		ldr	r3, [r3]
 403 0030 9F46     		mov	pc, r3
 404              		.section	.rodata
 405              		.align	2
 406              	.L23:
 407 0000 52020000 		.word	.L53
 408 0004 32000000 		.word	.L22
 409 0008 DA000000 		.word	.L24
 410 000c 52020000 		.word	.L53
 411 0010 52020000 		.word	.L53
 412 0014 E4000000 		.word	.L25
 413 0018 52020000 		.word	.L53
 414 001c 52020000 		.word	.L53
 415 0020 52020000 		.word	.L53
 416 0024 52020000 		.word	.L53
 417 0028 52020000 		.word	.L53
 418 002c 52020000 		.word	.L53
ARM GAS  C:\Users\Kevin\AppData\Local\Temp\ccJ9qp0a.s 			page 33


 419 0030 52020000 		.word	.L53
 420 0034 52020000 		.word	.L53
 421 0038 52020000 		.word	.L53
 422 003c 52020000 		.word	.L53
 423 0040 52020000 		.word	.L53
 424 0044 52020000 		.word	.L53
 425 0048 52020000 		.word	.L53
 426 004c 52020000 		.word	.L53
 427 0050 52020000 		.word	.L53
 428 0054 52020000 		.word	.L53
 429 0058 52020000 		.word	.L53
 430 005c 52020000 		.word	.L53
 431 0060 52020000 		.word	.L53
 432 0064 52020000 		.word	.L53
 433 0068 52020000 		.word	.L53
 434 006c 52020000 		.word	.L53
 435 0070 52020000 		.word	.L53
 436 0074 52020000 		.word	.L53
 437 0078 52020000 		.word	.L53
 438 007c 52020000 		.word	.L53
 439 0080 52020000 		.word	.L53
 440 0084 EE000000 		.word	.L26
 441 0088 52020000 		.word	.L53
 442 008c 52020000 		.word	.L53
 443 0090 52020000 		.word	.L53
 444 0094 52020000 		.word	.L53
 445 0098 3E010000 		.word	.L28
 446 009c 26010000 		.word	.L29
 447 00a0 36010000 		.word	.L30
 448 00a4 52020000 		.word	.L53
 449 00a8 1C010000 		.word	.L31
 450 00ac 52020000 		.word	.L53
 451 00b0 52020000 		.word	.L53
 452 00b4 52020000 		.word	.L53
 453 00b8 52020000 		.word	.L53
 454 00bc 52020000 		.word	.L53
 455 00c0 52020000 		.word	.L53
 456 00c4 52020000 		.word	.L53
 457 00c8 52020000 		.word	.L53
 458 00cc 52020000 		.word	.L53
 459 00d0 52020000 		.word	.L53
 460 00d4 52020000 		.word	.L53
 461 00d8 52020000 		.word	.L53
 462 00dc 52020000 		.word	.L53
 463 00e0 52020000 		.word	.L53
 464 00e4 52020000 		.word	.L53
 465 00e8 52020000 		.word	.L53
 466 00ec 52020000 		.word	.L53
 467 00f0 52020000 		.word	.L53
 468 00f4 52020000 		.word	.L53
 469 00f8 52020000 		.word	.L53
 470 00fc 52020000 		.word	.L53
 471 0100 52020000 		.word	.L53
 472 0104 BE010000 		.word	.L32
 473 0108 F8010000 		.word	.L33
 474 010c FE010000 		.word	.L34
 475 0110 52020000 		.word	.L53
ARM GAS  C:\Users\Kevin\AppData\Local\Temp\ccJ9qp0a.s 			page 34


 476 0114 52020000 		.word	.L53
 477 0118 52020000 		.word	.L53
 478 011c 52020000 		.word	.L53
 479 0120 52020000 		.word	.L53
 480 0124 52020000 		.word	.L53
 481 0128 52020000 		.word	.L53
 482 012c 52020000 		.word	.L53
 483 0130 3E020000 		.word	.L35
 484 0134 52020000 		.word	.L53
 485 0138 52020000 		.word	.L53
 486 013c 52020000 		.word	.L53
 487 0140 52020000 		.word	.L53
 488 0144 52020000 		.word	.L53
 489 0148 52020000 		.word	.L53
 490 014c 52020000 		.word	.L53
 491 0150 48020000 		.word	.L39
 492 0154 52020000 		.word	.L53
 493 0158 52020000 		.word	.L53
 494 015c 52020000 		.word	.L53
 495 0160 52020000 		.word	.L53
 496 0164 52020000 		.word	.L53
 497 0168 52020000 		.word	.L53
 498 016c 52020000 		.word	.L53
 499 0170 52020000 		.word	.L53
 500 0174 52020000 		.word	.L53
 501 0178 52020000 		.word	.L53
 502 017c 52020000 		.word	.L53
 503 0180 52020000 		.word	.L53
 504 0184 52020000 		.word	.L53
 505 0188 52020000 		.word	.L53
 506 018c 52020000 		.word	.L53
 507 0190 52020000 		.word	.L53
 508 0194 52020000 		.word	.L53
 509 0198 52020000 		.word	.L53
 510 019c 52020000 		.word	.L53
 511 01a0 52020000 		.word	.L53
 512 01a4 52020000 		.word	.L53
 513 01a8 52020000 		.word	.L53
 514 01ac 52020000 		.word	.L53
 515 01b0 52020000 		.word	.L53
 516 01b4 52020000 		.word	.L53
 517 01b8 52020000 		.word	.L53
 518 01bc 52020000 		.word	.L53
 519 01c0 52020000 		.word	.L53
 520 01c4 B2010000 		.word	.L41
 521              		.section	.text.CyBle_EventHandler
 522              	.L22:
 523              	.LBB3:
1405:.\Generated_Source\PSoC4/BLE_eventHandler.c ****     {
1406:.\Generated_Source\PSoC4/BLE_eventHandler.c ****         /**********************************************************
1407:.\Generated_Source\PSoC4/BLE_eventHandler.c ****         * General events
1408:.\Generated_Source\PSoC4/BLE_eventHandler.c ****         ************************************************************/
1409:.\Generated_Source\PSoC4/BLE_eventHandler.c ****         case CYBLE_EVT_STACK_ON:
1410:.\Generated_Source\PSoC4/BLE_eventHandler.c ****         #if(CYBLE_MODE_PROFILE)
1411:.\Generated_Source\PSoC4/BLE_eventHandler.c ****         {
1412:.\Generated_Source\PSoC4/BLE_eventHandler.c ****             CYBLE_BLESS_PWR_IN_DB_T bleSsPowerLevel;
1413:.\Generated_Source\PSoC4/BLE_eventHandler.c ****             
ARM GAS  C:\Users\Kevin\AppData\Local\Temp\ccJ9qp0a.s 			page 35


1414:.\Generated_Source\PSoC4/BLE_eventHandler.c ****             /* Set Tx Power Level for advertising and connection channels */
1415:.\Generated_Source\PSoC4/BLE_eventHandler.c ****             bleSsPowerLevel.blePwrLevelInDbm = CYBLE_TX_POWER_LEVEL_ADV;
 524              		.loc 1 1415 0
 525 0032 0C23     		mov	r3, #12
 526 0034 FB18     		add	r3, r7, r3
 527 0036 0722     		mov	r2, #7
 528 0038 1A70     		strb	r2, [r3]
1416:.\Generated_Source\PSoC4/BLE_eventHandler.c ****             bleSsPowerLevel.bleSsChId = CYBLE_LL_ADV_CH_TYPE;
 529              		.loc 1 1416 0
 530 003a 0C23     		mov	r3, #12
 531 003c FB18     		add	r3, r7, r3
 532 003e 0022     		mov	r2, #0
 533 0040 5A70     		strb	r2, [r3, #1]
1417:.\Generated_Source\PSoC4/BLE_eventHandler.c ****             (void) CyBle_SetTxPowerLevel (&bleSsPowerLevel);
 534              		.loc 1 1417 0
 535 0042 0C23     		mov	r3, #12
 536 0044 FB18     		add	r3, r7, r3
 537 0046 181C     		mov	r0, r3
 538 0048 FFF7FEFF 		bl	CyBle_SetTxPowerLevel
1418:.\Generated_Source\PSoC4/BLE_eventHandler.c ****             bleSsPowerLevel.blePwrLevelInDbm = CYBLE_TX_POWER_LEVEL_CONN;
 539              		.loc 1 1418 0
 540 004c 0C23     		mov	r3, #12
 541 004e FB18     		add	r3, r7, r3
 542 0050 0722     		mov	r2, #7
 543 0052 1A70     		strb	r2, [r3]
1419:.\Generated_Source\PSoC4/BLE_eventHandler.c ****             bleSsPowerLevel.bleSsChId = CYBLE_LL_CONN_CH_TYPE;
 544              		.loc 1 1419 0
 545 0054 0C23     		mov	r3, #12
 546 0056 FB18     		add	r3, r7, r3
 547 0058 0122     		mov	r2, #1
 548 005a 5A70     		strb	r2, [r3, #1]
1420:.\Generated_Source\PSoC4/BLE_eventHandler.c ****             (void) CyBle_SetTxPowerLevel (&bleSsPowerLevel);
 549              		.loc 1 1420 0
 550 005c 0C23     		mov	r3, #12
 551 005e FB18     		add	r3, r7, r3
 552 0060 181C     		mov	r0, r3
 553 0062 FFF7FEFF 		bl	CyBle_SetTxPowerLevel
 554              	.LBE3:
1421:.\Generated_Source\PSoC4/BLE_eventHandler.c ****         }
1422:.\Generated_Source\PSoC4/BLE_eventHandler.c ****         #endif /* CYBLE_MODE_PROFILE */
1423:.\Generated_Source\PSoC4/BLE_eventHandler.c ****         #if (CYBLE_GATT_ROLE_SERVER || CYBLE_GATT_ROLE_CLIENT)
1424:.\Generated_Source\PSoC4/BLE_eventHandler.c ****             /* Set device Address  */
1425:.\Generated_Source\PSoC4/BLE_eventHandler.c ****             if(CyBle_IsDeviceAddressValid(cyBle_sflashDeviceAddress) != 0u)
 555              		.loc 1 1425 0
 556 0066 8A4B     		ldr	r3, .L54+8
 557 0068 1B68     		ldr	r3, [r3]
 558 006a 181C     		mov	r0, r3
 559 006c FFF7FEFF 		bl	CyBle_IsDeviceAddressValid
 560 0070 031E     		sub	r3, r0, #0
 561 0072 11D0     		beq	.L42
1426:.\Generated_Source\PSoC4/BLE_eventHandler.c ****             {
1427:.\Generated_Source\PSoC4/BLE_eventHandler.c ****                 (void) CyBle_SetDeviceAddress(cyBle_sflashDeviceAddress);
 562              		.loc 1 1427 0
 563 0074 864B     		ldr	r3, .L54+8
 564 0076 1B68     		ldr	r3, [r3]
 565 0078 181C     		mov	r0, r3
 566 007a FFF7FEFF 		bl	CyBle_SetDeviceAddress
ARM GAS  C:\Users\Kevin\AppData\Local\Temp\ccJ9qp0a.s 			page 36


1428:.\Generated_Source\PSoC4/BLE_eventHandler.c ****                 #if(CYBLE_GAP_ROLE_PERIPHERAL || CYBLE_GAP_ROLE_BROADCASTER)
1429:.\Generated_Source\PSoC4/BLE_eventHandler.c ****                     CyBle_ChangeAdDeviceAddress(cyBle_sflashDeviceAddress, 0u);
 567              		.loc 1 1429 0
 568 007e 844B     		ldr	r3, .L54+8
 569 0080 1B68     		ldr	r3, [r3]
 570 0082 181C     		mov	r0, r3
 571 0084 0021     		mov	r1, #0
 572 0086 FFF7FEFF 		bl	CyBle_ChangeAdDeviceAddress
1430:.\Generated_Source\PSoC4/BLE_eventHandler.c ****                     CyBle_ChangeAdDeviceAddress(cyBle_sflashDeviceAddress, 1u);
 573              		.loc 1 1430 0
 574 008a 814B     		ldr	r3, .L54+8
 575 008c 1B68     		ldr	r3, [r3]
 576 008e 181C     		mov	r0, r3
 577 0090 0121     		mov	r1, #1
 578 0092 FFF7FEFF 		bl	CyBle_ChangeAdDeviceAddress
 579 0096 19E0     		b	.L43
 580              	.L42:
1431:.\Generated_Source\PSoC4/BLE_eventHandler.c ****                 #endif /* CYBLE_GAP_ROLE_PERIPHERAL || CYBLE_GAP_ROLE_BROADCASTER */    
1432:.\Generated_Source\PSoC4/BLE_eventHandler.c ****             }
1433:.\Generated_Source\PSoC4/BLE_eventHandler.c ****             else
1434:.\Generated_Source\PSoC4/BLE_eventHandler.c ****             {
1435:.\Generated_Source\PSoC4/BLE_eventHandler.c ****             #if (SILICON_GENERATED_DEVICE_ADDRESS != 0u)
1436:.\Generated_Source\PSoC4/BLE_eventHandler.c ****                 cyBle_deviceAddress.bdAddr[0] = CYBLE_SFLASH_DIE_X_REG;
 581              		.loc 1 1436 0
 582 0098 7E4B     		ldr	r3, .L54+12
 583 009a 1A78     		ldrb	r2, [r3]
 584 009c 7E4B     		ldr	r3, .L54+16
 585 009e 1A70     		strb	r2, [r3]
1437:.\Generated_Source\PSoC4/BLE_eventHandler.c ****                 cyBle_deviceAddress.bdAddr[1] = CYBLE_SFLASH_DIE_Y_REG;
 586              		.loc 1 1437 0
 587 00a0 7E4B     		ldr	r3, .L54+20
 588 00a2 1A78     		ldrb	r2, [r3]
 589 00a4 7C4B     		ldr	r3, .L54+16
 590 00a6 5A70     		strb	r2, [r3, #1]
1438:.\Generated_Source\PSoC4/BLE_eventHandler.c ****                 cyBle_deviceAddress.bdAddr[2] = CYBLE_SFLASH_DIE_WAFER_REG;
 591              		.loc 1 1438 0
 592 00a8 7D4B     		ldr	r3, .L54+24
 593 00aa 1A78     		ldrb	r2, [r3]
 594 00ac 7A4B     		ldr	r3, .L54+16
 595 00ae 9A70     		strb	r2, [r3, #2]
1439:.\Generated_Source\PSoC4/BLE_eventHandler.c ****             #endif /* SILICON_GENERATED_DEVICE_ADDRESS != 0u */
1440:.\Generated_Source\PSoC4/BLE_eventHandler.c ****                 (void) CyBle_SetDeviceAddress(&cyBle_deviceAddress);
 596              		.loc 1 1440 0
 597 00b0 794B     		ldr	r3, .L54+16
 598 00b2 181C     		mov	r0, r3
 599 00b4 FFF7FEFF 		bl	CyBle_SetDeviceAddress
1441:.\Generated_Source\PSoC4/BLE_eventHandler.c ****                 #if(CYBLE_GAP_ROLE_PERIPHERAL || CYBLE_GAP_ROLE_BROADCASTER)
1442:.\Generated_Source\PSoC4/BLE_eventHandler.c ****                     CyBle_ChangeAdDeviceAddress(&cyBle_deviceAddress, 0u);
 600              		.loc 1 1442 0
 601 00b8 774B     		ldr	r3, .L54+16
 602 00ba 181C     		mov	r0, r3
 603 00bc 0021     		mov	r1, #0
 604 00be FFF7FEFF 		bl	CyBle_ChangeAdDeviceAddress
1443:.\Generated_Source\PSoC4/BLE_eventHandler.c ****                     CyBle_ChangeAdDeviceAddress(&cyBle_deviceAddress, 1u);
 605              		.loc 1 1443 0
 606 00c2 754B     		ldr	r3, .L54+16
 607 00c4 181C     		mov	r0, r3
ARM GAS  C:\Users\Kevin\AppData\Local\Temp\ccJ9qp0a.s 			page 37


 608 00c6 0121     		mov	r1, #1
 609 00c8 FFF7FEFF 		bl	CyBle_ChangeAdDeviceAddress
 610              	.L43:
1444:.\Generated_Source\PSoC4/BLE_eventHandler.c ****                 #endif /* CYBLE_GAP_ROLE_PERIPHERAL || CYBLE_GAP_ROLE_BROADCASTER */    
1445:.\Generated_Source\PSoC4/BLE_eventHandler.c ****             }
1446:.\Generated_Source\PSoC4/BLE_eventHandler.c ****             /* Set device IO Capability  */
1447:.\Generated_Source\PSoC4/BLE_eventHandler.c ****             (void) CyBle_GapSetIoCap(CYBLE_IO_CAPABILITY);    
 611              		.loc 1 1447 0
 612 00cc 0320     		mov	r0, #3
 613 00ce FFF7FEFF 		bl	CyBle_GapSetIoCap
1448:.\Generated_Source\PSoC4/BLE_eventHandler.c ****         #endif /* CYBLE_GATT_ROLE_SERVER || CYBLE_GATT_ROLE_CLIENT */
1449:.\Generated_Source\PSoC4/BLE_eventHandler.c ****             CyBle_SetState(CYBLE_STATE_DISCONNECTED);
 614              		.loc 1 1449 0
 615 00d2 744B     		ldr	r3, .L54+28
 616 00d4 0422     		mov	r2, #4
 617 00d6 1A70     		strb	r2, [r3]
1450:.\Generated_Source\PSoC4/BLE_eventHandler.c ****             break;
 618              		.loc 1 1450 0
 619 00d8 BCE0     		b	.L44
 620              	.L24:
1451:.\Generated_Source\PSoC4/BLE_eventHandler.c ****         case CYBLE_EVT_TIMEOUT:
1452:.\Generated_Source\PSoC4/BLE_eventHandler.c ****             CyBle_TimeOutEventHandler((CYBLE_TO_REASON_CODE_T *)eventParam);
 621              		.loc 1 1452 0
 622 00da 3B68     		ldr	r3, [r7]
 623 00dc 181C     		mov	r0, r3
 624 00de FFF7FEFF 		bl	CyBle_TimeOutEventHandler
1453:.\Generated_Source\PSoC4/BLE_eventHandler.c ****             break;
 625              		.loc 1 1453 0
 626 00e2 B7E0     		b	.L44
 627              	.L25:
1454:.\Generated_Source\PSoC4/BLE_eventHandler.c ****     	case CYBLE_EVT_STACK_BUSY_STATUS:
1455:.\Generated_Source\PSoC4/BLE_eventHandler.c ****             cyBle_busyStatus = *(uint8 *)eventParam;
 628              		.loc 1 1455 0
 629 00e4 3B68     		ldr	r3, [r7]
 630 00e6 1A78     		ldrb	r2, [r3]
 631 00e8 6F4B     		ldr	r3, .L54+32
 632 00ea 1A70     		strb	r2, [r3]
1456:.\Generated_Source\PSoC4/BLE_eventHandler.c ****             break;
 633              		.loc 1 1456 0
 634 00ec B2E0     		b	.L44
 635              	.L26:
1457:.\Generated_Source\PSoC4/BLE_eventHandler.c **** 
1458:.\Generated_Source\PSoC4/BLE_eventHandler.c ****         /**********************************************************
1459:.\Generated_Source\PSoC4/BLE_eventHandler.c ****         * GAP events
1460:.\Generated_Source\PSoC4/BLE_eventHandler.c ****         ************************************************************/
1461:.\Generated_Source\PSoC4/BLE_eventHandler.c ****         case CYBLE_EVT_GAP_AUTH_REQ:
1462:.\Generated_Source\PSoC4/BLE_eventHandler.c ****         #if(CYBLE_MODE_PROFILE)
1463:.\Generated_Source\PSoC4/BLE_eventHandler.c ****             if(0u == (cyBle_eventHandlerFlag & CYBLE_DISABLE_AUTOMATIC_AUTH))
 636              		.loc 1 1463 0
 637 00ee 664B     		ldr	r3, .L54
 638 00f0 1B78     		ldrb	r3, [r3]
 639 00f2 DBB2     		uxtb	r3, r3
 640 00f4 1A1C     		mov	r2, r3
 641 00f6 2023     		mov	r3, #32
 642 00f8 1340     		and	r3, r2
 643 00fa 0ED1     		bne	.L45
1464:.\Generated_Source\PSoC4/BLE_eventHandler.c ****             {
ARM GAS  C:\Users\Kevin\AppData\Local\Temp\ccJ9qp0a.s 			page 38


1465:.\Generated_Source\PSoC4/BLE_eventHandler.c ****                 /* If the responding device does not support pairing then the responding 
1466:.\Generated_Source\PSoC4/BLE_eventHandler.c ****                    device shall respond using the Pairing Failed message with the error 
1467:.\Generated_Source\PSoC4/BLE_eventHandler.c ****                    code "Pairing Not Supported" otherwise it responds with a Pairing 
1468:.\Generated_Source\PSoC4/BLE_eventHandler.c ****                    Response message.
1469:.\Generated_Source\PSoC4/BLE_eventHandler.c ****                 */
1470:.\Generated_Source\PSoC4/BLE_eventHandler.c ****                 if(cyBle_authInfo.security == (CYBLE_GAP_SEC_MODE_1 | CYBLE_GAP_SEC_LEVEL_1))
 644              		.loc 1 1470 0
 645 00fc 6B4B     		ldr	r3, .L54+36
 646 00fe 1B78     		ldrb	r3, [r3]
 647 0100 102B     		cmp	r3, #16
 648 0102 02D1     		bne	.L46
1471:.\Generated_Source\PSoC4/BLE_eventHandler.c ****                 {
1472:.\Generated_Source\PSoC4/BLE_eventHandler.c ****                     cyBle_authInfo.authErr = CYBLE_GAP_AUTH_ERROR_PAIRING_NOT_SUPPORTED;
 649              		.loc 1 1472 0
 650 0104 694B     		ldr	r3, .L54+36
 651 0106 0522     		mov	r2, #5
 652 0108 DA70     		strb	r2, [r3, #3]
 653              	.L46:
1473:.\Generated_Source\PSoC4/BLE_eventHandler.c ****                 }    
1474:.\Generated_Source\PSoC4/BLE_eventHandler.c ****             #if(CYBLE_GAP_ROLE_PERIPHERAL)
1475:.\Generated_Source\PSoC4/BLE_eventHandler.c ****                 (void)CyBle_GappAuthReqReply(cyBle_connHandle.bdHandle, &cyBle_authInfo);
 654              		.loc 1 1475 0
 655 010a 694B     		ldr	r3, .L54+40
 656 010c 1A78     		ldrb	r2, [r3]
 657 010e 674B     		ldr	r3, .L54+36
 658 0110 101C     		mov	r0, r2
 659 0112 191C     		mov	r1, r3
 660 0114 FFF7FEFF 		bl	CyBle_GappAuthReqReply
1476:.\Generated_Source\PSoC4/BLE_eventHandler.c ****             #endif /* CYBLE_GAP_ROLE_PERIPHERAL */
1477:.\Generated_Source\PSoC4/BLE_eventHandler.c ****             #if (CYBLE_GAP_ROLE_CENTRAL)
1478:.\Generated_Source\PSoC4/BLE_eventHandler.c ****                 (void)CyBle_GapAuthReq(cyBle_connHandle.bdHandle, &cyBle_authInfo);
1479:.\Generated_Source\PSoC4/BLE_eventHandler.c ****             #endif /* CYBLE_GAP_ROLE_CENTRAL */
1480:.\Generated_Source\PSoC4/BLE_eventHandler.c ****             }
1481:.\Generated_Source\PSoC4/BLE_eventHandler.c ****         #endif /* CYBLE_MODE_PROFILE */
1482:.\Generated_Source\PSoC4/BLE_eventHandler.c ****             break;
 661              		.loc 1 1482 0
 662 0118 9CE0     		b	.L44
 663              	.L45:
 664 011a 9BE0     		b	.L44
 665              	.L31:
1483:.\Generated_Source\PSoC4/BLE_eventHandler.c ****         
1484:.\Generated_Source\PSoC4/BLE_eventHandler.c ****         case CYBLE_EVT_GAP_AUTH_COMPLETE:
1485:.\Generated_Source\PSoC4/BLE_eventHandler.c ****         #if((CYBLE_GAP_ROLE_PERIPHERAL || CYBLE_GAP_ROLE_CENTRAL) && (CYBLE_BONDING_REQUIREMENT == 
1486:.\Generated_Source\PSoC4/BLE_eventHandler.c ****             cyBle_peerBonding = ((CYBLE_GAP_AUTH_INFO_T *)eventParam)->bonding;
1487:.\Generated_Source\PSoC4/BLE_eventHandler.c ****         #endif  /* CYBLE_BONDING_REQUIREMENT == CYBLE_BONDING_YES */
1488:.\Generated_Source\PSoC4/BLE_eventHandler.c ****             break;
1489:.\Generated_Source\PSoC4/BLE_eventHandler.c ****         
1490:.\Generated_Source\PSoC4/BLE_eventHandler.c ****         case CYBLE_EVT_GAP_CONNECTION_UPDATE_COMPLETE:
1491:.\Generated_Source\PSoC4/BLE_eventHandler.c ****             CyBle_GapConnUpdateCompleteEventHandler((const CYBLE_GAP_CONN_PARAM_UPDATED_IN_CONTROLL
 666              		.loc 1 1491 0
 667 011c 3B68     		ldr	r3, [r7]
 668 011e 181C     		mov	r0, r3
 669 0120 FFF7FEFF 		bl	CyBle_GapConnUpdateCompleteEventHandler
1492:.\Generated_Source\PSoC4/BLE_eventHandler.c ****             break;
 670              		.loc 1 1492 0
 671 0124 96E0     		b	.L44
 672              	.L29:
ARM GAS  C:\Users\Kevin\AppData\Local\Temp\ccJ9qp0a.s 			page 39


1493:.\Generated_Source\PSoC4/BLE_eventHandler.c ****             
1494:.\Generated_Source\PSoC4/BLE_eventHandler.c ****         case CYBLE_EVT_GAP_DEVICE_CONNECTED:
1495:.\Generated_Source\PSoC4/BLE_eventHandler.c ****             CyBle_GapConnUpdateCompleteEventHandler((const CYBLE_GAP_CONN_PARAM_UPDATED_IN_CONTROLL
 673              		.loc 1 1495 0
 674 0126 3B68     		ldr	r3, [r7]
 675 0128 181C     		mov	r0, r3
 676 012a FFF7FEFF 		bl	CyBle_GapConnUpdateCompleteEventHandler
1496:.\Generated_Source\PSoC4/BLE_eventHandler.c ****             #if(CYBLE_GAP_ROLE_CENTRAL)
1497:.\Generated_Source\PSoC4/BLE_eventHandler.c ****                 if(cyBle_connectingTimeout != 0u)
1498:.\Generated_Source\PSoC4/BLE_eventHandler.c ****                 {
1499:.\Generated_Source\PSoC4/BLE_eventHandler.c ****                    (void)CyBle_StopTimer();
1500:.\Generated_Source\PSoC4/BLE_eventHandler.c ****                 }
1501:.\Generated_Source\PSoC4/BLE_eventHandler.c ****             #endif /* CYBLE_GAP_ROLE_CENTRAL */
1502:.\Generated_Source\PSoC4/BLE_eventHandler.c ****             CyBle_SetState(CYBLE_STATE_CONNECTED);
 677              		.loc 1 1502 0
 678 012e 5D4B     		ldr	r3, .L54+28
 679 0130 0222     		mov	r2, #2
 680 0132 1A70     		strb	r2, [r3]
1503:.\Generated_Source\PSoC4/BLE_eventHandler.c ****             break;
 681              		.loc 1 1503 0
 682 0134 8EE0     		b	.L44
 683              	.L30:
1504:.\Generated_Source\PSoC4/BLE_eventHandler.c **** 
1505:.\Generated_Source\PSoC4/BLE_eventHandler.c ****         case CYBLE_EVT_GAP_DEVICE_DISCONNECTED:
1506:.\Generated_Source\PSoC4/BLE_eventHandler.c ****             CyBle_SetState(CYBLE_STATE_DISCONNECTED);
 684              		.loc 1 1506 0
 685 0136 5B4B     		ldr	r3, .L54+28
 686 0138 0422     		mov	r2, #4
 687 013a 1A70     		strb	r2, [r3]
1507:.\Generated_Source\PSoC4/BLE_eventHandler.c ****             break;
 688              		.loc 1 1507 0
 689 013c 8AE0     		b	.L44
 690              	.L28:
1508:.\Generated_Source\PSoC4/BLE_eventHandler.c ****         #if(CYBLE_GAP_ROLE_PERIPHERAL || CYBLE_GAP_ROLE_BROADCASTER)
1509:.\Generated_Source\PSoC4/BLE_eventHandler.c ****             
1510:.\Generated_Source\PSoC4/BLE_eventHandler.c ****         case CYBLE_EVT_GAPP_ADVERTISEMENT_START_STOP:
1511:.\Generated_Source\PSoC4/BLE_eventHandler.c ****             #ifdef CYBLE_CPS_SERVER
1512:.\Generated_Source\PSoC4/BLE_eventHandler.c ****                 #if(CYBLE_GAP_ROLE_BROADCASTER)
1513:.\Generated_Source\PSoC4/BLE_eventHandler.c ****                     CyBle_CpssAdvertisementStartStopEventHandler();
1514:.\Generated_Source\PSoC4/BLE_eventHandler.c ****                 #endif /* CYBLE_GAP_ROLE_BROADCASTER */
1515:.\Generated_Source\PSoC4/BLE_eventHandler.c ****             #endif /* CYBLE_CPS_SERVER */
1516:.\Generated_Source\PSoC4/BLE_eventHandler.c ****             
1517:.\Generated_Source\PSoC4/BLE_eventHandler.c ****             if((CYBLE_STATE_CONNECTED != CyBle_GetState()) && ((cyBle_eventHandlerFlag & CYBLE_CALL
 691              		.loc 1 1517 0
 692 013e 594B     		ldr	r3, .L54+28
 693 0140 1B78     		ldrb	r3, [r3]
 694 0142 022B     		cmp	r3, #2
 695 0144 34D0     		beq	.L47
 696              		.loc 1 1517 0 is_stmt 0 discriminator 1
 697 0146 504B     		ldr	r3, .L54
 698 0148 1B78     		ldrb	r3, [r3]
 699 014a DBB2     		uxtb	r3, r3
 700 014c 1A1C     		mov	r2, r3
 701 014e 0123     		mov	r3, #1
 702 0150 1340     		and	r3, r2
 703 0152 2DD0     		beq	.L47
1518:.\Generated_Source\PSoC4/BLE_eventHandler.c ****             {
ARM GAS  C:\Users\Kevin\AppData\Local\Temp\ccJ9qp0a.s 			page 40


1519:.\Generated_Source\PSoC4/BLE_eventHandler.c ****                 /* After CyBle_GappStartAdvertisement first event indicates that advertising has be
1520:.\Generated_Source\PSoC4/BLE_eventHandler.c ****                 if(0u != (cyBle_eventHandlerFlag & CYBLE_START_FLAG))
 704              		.loc 1 1520 0 is_stmt 1
 705 0154 4C4B     		ldr	r3, .L54
 706 0156 1B78     		ldrb	r3, [r3]
 707 0158 DBB2     		uxtb	r3, r3
 708 015a 1A1C     		mov	r2, r3
 709 015c 0423     		mov	r3, #4
 710 015e 1340     		and	r3, r2
 711 0160 0BD0     		beq	.L48
1521:.\Generated_Source\PSoC4/BLE_eventHandler.c ****                 {
1522:.\Generated_Source\PSoC4/BLE_eventHandler.c ****                     CyBle_SetState(CYBLE_STATE_ADVERTISING);
 712              		.loc 1 1522 0
 713 0162 504B     		ldr	r3, .L54+28
 714 0164 0322     		mov	r2, #3
 715 0166 1A70     		strb	r2, [r3]
1523:.\Generated_Source\PSoC4/BLE_eventHandler.c ****                     cyBle_eventHandlerFlag &= (uint8)~CYBLE_START_FLAG;
 716              		.loc 1 1523 0
 717 0168 474B     		ldr	r3, .L54
 718 016a 1B78     		ldrb	r3, [r3]
 719 016c DBB2     		uxtb	r3, r3
 720 016e 0422     		mov	r2, #4
 721 0170 9343     		bic	r3, r2
 722 0172 DAB2     		uxtb	r2, r3
 723 0174 444B     		ldr	r3, .L54
 724 0176 1A70     		strb	r2, [r3]
 725 0178 1AE0     		b	.L47
 726              	.L48:
1524:.\Generated_Source\PSoC4/BLE_eventHandler.c ****                 }
1525:.\Generated_Source\PSoC4/BLE_eventHandler.c ****                 /* When application initiated stop advertisement */
1526:.\Generated_Source\PSoC4/BLE_eventHandler.c ****                 else if(0u != (cyBle_eventHandlerFlag & CYBLE_STOP_FLAG))
 727              		.loc 1 1526 0
 728 017a 434B     		ldr	r3, .L54
 729 017c 1B78     		ldrb	r3, [r3]
 730 017e DBB2     		uxtb	r3, r3
 731 0180 1A1C     		mov	r2, r3
 732 0182 0823     		mov	r3, #8
 733 0184 1340     		and	r3, r2
 734 0186 0BD0     		beq	.L49
1527:.\Generated_Source\PSoC4/BLE_eventHandler.c ****                 {
1528:.\Generated_Source\PSoC4/BLE_eventHandler.c ****                     CyBle_SetState(CYBLE_STATE_DISCONNECTED);  
 735              		.loc 1 1528 0
 736 0188 464B     		ldr	r3, .L54+28
 737 018a 0422     		mov	r2, #4
 738 018c 1A70     		strb	r2, [r3]
1529:.\Generated_Source\PSoC4/BLE_eventHandler.c ****                     cyBle_eventHandlerFlag &= (uint8)~CYBLE_STOP_FLAG;
 739              		.loc 1 1529 0
 740 018e 3E4B     		ldr	r3, .L54
 741 0190 1B78     		ldrb	r3, [r3]
 742 0192 DBB2     		uxtb	r3, r3
 743 0194 0822     		mov	r2, #8
 744 0196 9343     		bic	r3, r2
 745 0198 DAB2     		uxtb	r2, r3
 746 019a 3B4B     		ldr	r3, .L54
 747 019c 1A70     		strb	r2, [r3]
 748 019e 07E0     		b	.L47
 749              	.L49:
ARM GAS  C:\Users\Kevin\AppData\Local\Temp\ccJ9qp0a.s 			page 41


1530:.\Generated_Source\PSoC4/BLE_eventHandler.c ****                 }
1531:.\Generated_Source\PSoC4/BLE_eventHandler.c ****                 else /* Following event indicates that advertising has been stopped */
1532:.\Generated_Source\PSoC4/BLE_eventHandler.c ****                 {
1533:.\Generated_Source\PSoC4/BLE_eventHandler.c ****                     if(CYBLE_STATE_ADVERTISING == CyBle_GetState())
 750              		.loc 1 1533 0
 751 01a0 404B     		ldr	r3, .L54+28
 752 01a2 1B78     		ldrb	r3, [r3]
 753 01a4 032B     		cmp	r3, #3
 754 01a6 03D1     		bne	.L47
1534:.\Generated_Source\PSoC4/BLE_eventHandler.c ****                     {
1535:.\Generated_Source\PSoC4/BLE_eventHandler.c ****                         CyBle_SetState(CYBLE_STATE_DISCONNECTED);
 755              		.loc 1 1535 0
 756 01a8 3E4B     		ldr	r3, .L54+28
 757 01aa 0422     		mov	r2, #4
 758 01ac 1A70     		strb	r2, [r3]
1536:.\Generated_Source\PSoC4/BLE_eventHandler.c ****                     #if ((CYBLE_SLOW_ADV_ENABLED != 0u) && (CYBLE_FAST_ADV_TIMEOUT != 0u))
1537:.\Generated_Source\PSoC4/BLE_eventHandler.c ****                         if(cyBle_advertisingIntervalType == CYBLE_ADVERTISING_FAST)
1538:.\Generated_Source\PSoC4/BLE_eventHandler.c ****                         {
1539:.\Generated_Source\PSoC4/BLE_eventHandler.c ****                             /* When fast advertising time out occur: Start slow advertising */
1540:.\Generated_Source\PSoC4/BLE_eventHandler.c ****                             if(CYBLE_ERROR_OK == CyBle_GappStartAdvertisement(CYBLE_ADVERTISING_SLO
1541:.\Generated_Source\PSoC4/BLE_eventHandler.c ****                             {
1542:.\Generated_Source\PSoC4/BLE_eventHandler.c ****                                 CyBle_SetState(CYBLE_STATE_ADVERTISING);
1543:.\Generated_Source\PSoC4/BLE_eventHandler.c ****                             }
1544:.\Generated_Source\PSoC4/BLE_eventHandler.c ****                         }
1545:.\Generated_Source\PSoC4/BLE_eventHandler.c ****                     #endif /* CYBLE_SLOW_ADV_ENABLED */
1546:.\Generated_Source\PSoC4/BLE_eventHandler.c ****                     }
1547:.\Generated_Source\PSoC4/BLE_eventHandler.c ****                 }
1548:.\Generated_Source\PSoC4/BLE_eventHandler.c ****             }
1549:.\Generated_Source\PSoC4/BLE_eventHandler.c ****             break;
 759              		.loc 1 1549 0
 760 01ae 51E0     		b	.L44
 761              	.L47:
 762 01b0 50E0     		b	.L44
 763              	.L41:
1550:.\Generated_Source\PSoC4/BLE_eventHandler.c ****         #endif /* CYBLE_GAP_ROLE_PERIPHERAL || CYBLE_GAP_ROLE_BROADCASTER */
1551:.\Generated_Source\PSoC4/BLE_eventHandler.c ****         
1552:.\Generated_Source\PSoC4/BLE_eventHandler.c ****         #if(CYBLE_GAP_ROLE_CENTRAL || CYBLE_GAP_ROLE_OBSERVER)    
1553:.\Generated_Source\PSoC4/BLE_eventHandler.c ****         case CYBLE_EVT_GAPC_SCAN_START_STOP:
1554:.\Generated_Source\PSoC4/BLE_eventHandler.c ****             #ifdef CYBLE_CPS_CLIENT
1555:.\Generated_Source\PSoC4/BLE_eventHandler.c ****                 CyBle_CpscScanStartStopEventHandler();
1556:.\Generated_Source\PSoC4/BLE_eventHandler.c ****             #endif /* CYBLE_CPS_CLIENT */
1557:.\Generated_Source\PSoC4/BLE_eventHandler.c ****             
1558:.\Generated_Source\PSoC4/BLE_eventHandler.c ****             if((CYBLE_STATE_CONNECTED != CyBle_GetState()) && ((cyBle_eventHandlerFlag & CYBLE_CALL
1559:.\Generated_Source\PSoC4/BLE_eventHandler.c ****             {
1560:.\Generated_Source\PSoC4/BLE_eventHandler.c ****                 /* After CyBle_GapcStartScan first event indicates that scanning has been started *
1561:.\Generated_Source\PSoC4/BLE_eventHandler.c ****                 if(0u != (cyBle_eventHandlerFlag & CYBLE_START_FLAG))
1562:.\Generated_Source\PSoC4/BLE_eventHandler.c ****                 {
1563:.\Generated_Source\PSoC4/BLE_eventHandler.c ****                     CyBle_SetState(CYBLE_STATE_SCANNING);
1564:.\Generated_Source\PSoC4/BLE_eventHandler.c ****                     cyBle_eventHandlerFlag &= (uint8)~CYBLE_START_FLAG;
1565:.\Generated_Source\PSoC4/BLE_eventHandler.c ****                 }
1566:.\Generated_Source\PSoC4/BLE_eventHandler.c ****                 /* When application initiated stop scanning */
1567:.\Generated_Source\PSoC4/BLE_eventHandler.c ****                 else if(0u != (cyBle_eventHandlerFlag & CYBLE_STOP_FLAG))
1568:.\Generated_Source\PSoC4/BLE_eventHandler.c ****                 {
1569:.\Generated_Source\PSoC4/BLE_eventHandler.c ****                     CyBle_SetState(CYBLE_STATE_DISCONNECTED);  
1570:.\Generated_Source\PSoC4/BLE_eventHandler.c ****                     cyBle_eventHandlerFlag &= (uint8)~CYBLE_STOP_FLAG;
1571:.\Generated_Source\PSoC4/BLE_eventHandler.c ****                 }
1572:.\Generated_Source\PSoC4/BLE_eventHandler.c ****                 else /* Following event indicates that scanning has been stopped by stack */
ARM GAS  C:\Users\Kevin\AppData\Local\Temp\ccJ9qp0a.s 			page 42


1573:.\Generated_Source\PSoC4/BLE_eventHandler.c ****                 {
1574:.\Generated_Source\PSoC4/BLE_eventHandler.c ****                     if(CYBLE_STATE_SCANNING == CyBle_GetState())
1575:.\Generated_Source\PSoC4/BLE_eventHandler.c ****                     {
1576:.\Generated_Source\PSoC4/BLE_eventHandler.c ****                         CyBle_SetState(CYBLE_STATE_DISCONNECTED);  
1577:.\Generated_Source\PSoC4/BLE_eventHandler.c ****                     #if ((CYBLE_SLOW_SCAN_ENABLED != 0u) && (CYBLE_FAST_SCAN_TIMEOUT != 0u))
1578:.\Generated_Source\PSoC4/BLE_eventHandler.c ****                         if(cyBle_scanningIntervalType == CYBLE_SCANNING_FAST)
1579:.\Generated_Source\PSoC4/BLE_eventHandler.c ****                         {
1580:.\Generated_Source\PSoC4/BLE_eventHandler.c ****                             /* When fast scanning time out occur: Start slow scanning */
1581:.\Generated_Source\PSoC4/BLE_eventHandler.c ****                             if(CYBLE_ERROR_OK == CyBle_GapcStartScan(CYBLE_SCANNING_SLOW))
1582:.\Generated_Source\PSoC4/BLE_eventHandler.c ****                             {
1583:.\Generated_Source\PSoC4/BLE_eventHandler.c ****                                 CyBle_SetState(CYBLE_STATE_SCANNING);
1584:.\Generated_Source\PSoC4/BLE_eventHandler.c ****                             }
1585:.\Generated_Source\PSoC4/BLE_eventHandler.c ****                         }
1586:.\Generated_Source\PSoC4/BLE_eventHandler.c ****                     #endif /* CYBLE_SLOW_SCAN_ENABLED */
1587:.\Generated_Source\PSoC4/BLE_eventHandler.c ****                     }
1588:.\Generated_Source\PSoC4/BLE_eventHandler.c ****                 }
1589:.\Generated_Source\PSoC4/BLE_eventHandler.c ****             }
1590:.\Generated_Source\PSoC4/BLE_eventHandler.c ****             break;
1591:.\Generated_Source\PSoC4/BLE_eventHandler.c ****         #endif /* CYBLE_GAP_ROLE_CENTRAL || CYBLE_GAP_ROLE_OBSERVER */
1592:.\Generated_Source\PSoC4/BLE_eventHandler.c **** 
1593:.\Generated_Source\PSoC4/BLE_eventHandler.c ****         /**********************************************************
1594:.\Generated_Source\PSoC4/BLE_eventHandler.c ****         * L2AP events 
1595:.\Generated_Source\PSoC4/BLE_eventHandler.c ****         ************************************************************/
1596:.\Generated_Source\PSoC4/BLE_eventHandler.c ****         case CYBLE_EVT_L2CAP_CONN_PARAM_UPDATE_RSP:
1597:.\Generated_Source\PSoC4/BLE_eventHandler.c ****             CyBle_L2Cap_ConnParamUpdateRspEventHandler(*(uint16 *)eventParam);
 764              		.loc 1 1597 0
 765 01b2 3B68     		ldr	r3, [r7]
 766 01b4 1B88     		ldrh	r3, [r3]
 767 01b6 181C     		mov	r0, r3
 768 01b8 FFF7FEFF 		bl	CyBle_L2Cap_ConnParamUpdateRspEventHandler
1598:.\Generated_Source\PSoC4/BLE_eventHandler.c ****             break;
 769              		.loc 1 1598 0
 770 01bc 4AE0     		b	.L44
 771              	.L32:
1599:.\Generated_Source\PSoC4/BLE_eventHandler.c ****         
1600:.\Generated_Source\PSoC4/BLE_eventHandler.c ****         /**********************************************************
1601:.\Generated_Source\PSoC4/BLE_eventHandler.c ****         * GATT events
1602:.\Generated_Source\PSoC4/BLE_eventHandler.c ****         ************************************************************/        
1603:.\Generated_Source\PSoC4/BLE_eventHandler.c ****         case CYBLE_EVT_GATT_CONNECT_IND:
1604:.\Generated_Source\PSoC4/BLE_eventHandler.c ****             cyBle_connHandle = *(CYBLE_CONN_HANDLE_T *)eventParam;
 772              		.loc 1 1604 0
 773 01be 3C4A     		ldr	r2, .L54+40
 774 01c0 3B68     		ldr	r3, [r7]
 775 01c2 111C     		mov	r1, r2
 776 01c4 1A1C     		mov	r2, r3
 777 01c6 0223     		mov	r3, #2
 778 01c8 081C     		mov	r0, r1
 779 01ca 111C     		mov	r1, r2
 780 01cc 1A1C     		mov	r2, r3
 781 01ce FFF7FEFF 		bl	memcpy
1605:.\Generated_Source\PSoC4/BLE_eventHandler.c ****             
1606:.\Generated_Source\PSoC4/BLE_eventHandler.c ****         #if((CYBLE_GATT_ROLE_SERVER) && (CYBLE_GATT_DB_CCCD_COUNT != 0u))
1607:.\Generated_Source\PSoC4/BLE_eventHandler.c ****             /* Init CCCD values in RAM */
1608:.\Generated_Source\PSoC4/BLE_eventHandler.c ****         	(void) memcpy (cyBle_attValuesCCCD, cyBle_flashStorage.attValuesCCCDFlashMemory[cyBle_conn
 782              		.loc 1 1608 0
 783 01d2 374B     		ldr	r3, .L54+40
 784 01d4 1B78     		ldrb	r3, [r3]
ARM GAS  C:\Users\Kevin\AppData\Local\Temp\ccJ9qp0a.s 			page 43


 785 01d6 B433     		add	r3, r3, #180
 786 01d8 5A00     		lsl	r2, r3, #1
 787 01da 364B     		ldr	r3, .L54+44
 788 01dc D318     		add	r3, r2, r3
 789 01de 0533     		add	r3, r3, #5
 790 01e0 354A     		ldr	r2, .L54+48
 791 01e2 111C     		mov	r1, r2
 792 01e4 1A1C     		mov	r2, r3
 793 01e6 0223     		mov	r3, #2
 794 01e8 081C     		mov	r0, r1
 795 01ea 111C     		mov	r1, r2
 796 01ec 1A1C     		mov	r2, r3
 797 01ee FFF7FEFF 		bl	memcpy
1609:.\Generated_Source\PSoC4/BLE_eventHandler.c ****                             CYBLE_GATT_DB_CCCD_COUNT);
1610:.\Generated_Source\PSoC4/BLE_eventHandler.c ****         #endif /* CYBLE_GATT_ROLE_SERVER */
1611:.\Generated_Source\PSoC4/BLE_eventHandler.c ****         
1612:.\Generated_Source\PSoC4/BLE_eventHandler.c ****         #if (CYBLE_GATT_ROLE_CLIENT)
1613:.\Generated_Source\PSoC4/BLE_eventHandler.c ****             CyBle_SetClientState(CYBLE_CLIENT_STATE_CONNECTED);
1614:.\Generated_Source\PSoC4/BLE_eventHandler.c ****         #endif /* CYBLE_GATT_ROLE_CLIENT */
1615:.\Generated_Source\PSoC4/BLE_eventHandler.c ****         
1616:.\Generated_Source\PSoC4/BLE_eventHandler.c ****             CyBle_GattConnectReqHandler();
 798              		.loc 1 1616 0
 799 01f2 FFF7FEFF 		bl	CyBle_GattConnectReqHandler
1617:.\Generated_Source\PSoC4/BLE_eventHandler.c ****             break;
 800              		.loc 1 1617 0
 801 01f6 2DE0     		b	.L44
 802              	.L33:
1618:.\Generated_Source\PSoC4/BLE_eventHandler.c **** 
1619:.\Generated_Source\PSoC4/BLE_eventHandler.c ****         case CYBLE_EVT_GATT_DISCONNECT_IND:
1620:.\Generated_Source\PSoC4/BLE_eventHandler.c ****             CyBle_GattDisconnectEventHandler();
 803              		.loc 1 1620 0
 804 01f8 FFF7FEFF 		bl	CyBle_GattDisconnectEventHandler
1621:.\Generated_Source\PSoC4/BLE_eventHandler.c ****             break;
 805              		.loc 1 1621 0
 806 01fc 2AE0     		b	.L44
 807              	.L34:
 808              	.LBB4:
1622:.\Generated_Source\PSoC4/BLE_eventHandler.c **** 
1623:.\Generated_Source\PSoC4/BLE_eventHandler.c ****     #if((CYBLE_GATT_ROLE_SERVER) || (CYBLE_GATT_ROLE_CLIENT))
1624:.\Generated_Source\PSoC4/BLE_eventHandler.c ****         case CYBLE_EVT_GATTS_XCNHG_MTU_REQ:
1625:.\Generated_Source\PSoC4/BLE_eventHandler.c ****             {
1626:.\Generated_Source\PSoC4/BLE_eventHandler.c ****                 uint16 cyBle_mtuSize;
1627:.\Generated_Source\PSoC4/BLE_eventHandler.c ****                 if(CYBLE_GATT_MTU > ((CYBLE_GATT_XCHG_MTU_PARAM_T *)eventParam)->mtu)
 809              		.loc 1 1627 0
 810 01fe 3B68     		ldr	r3, [r7]
 811 0200 5A88     		ldrh	r2, [r3, #2]
 812 0202 F423     		mov	r3, #244
 813 0204 FF33     		add	r3, r3, #255
 814 0206 9A42     		cmp	r2, r3
 815 0208 05D8     		bhi	.L50
1628:.\Generated_Source\PSoC4/BLE_eventHandler.c ****                 {
1629:.\Generated_Source\PSoC4/BLE_eventHandler.c ****                     cyBle_mtuSize = ((CYBLE_GATT_XCHG_MTU_PARAM_T *)eventParam)->mtu;
 816              		.loc 1 1629 0
 817 020a 0E23     		mov	r3, #14
 818 020c FB18     		add	r3, r7, r3
 819 020e 3A68     		ldr	r2, [r7]
 820 0210 5288     		ldrh	r2, [r2, #2]
ARM GAS  C:\Users\Kevin\AppData\Local\Temp\ccJ9qp0a.s 			page 44


 821 0212 1A80     		strh	r2, [r3]
 822 0214 04E0     		b	.L51
 823              	.L50:
1630:.\Generated_Source\PSoC4/BLE_eventHandler.c ****                 }
1631:.\Generated_Source\PSoC4/BLE_eventHandler.c ****                 else
1632:.\Generated_Source\PSoC4/BLE_eventHandler.c ****                 {
1633:.\Generated_Source\PSoC4/BLE_eventHandler.c ****                     cyBle_mtuSize = CYBLE_GATT_MTU;
 824              		.loc 1 1633 0
 825 0216 0E23     		mov	r3, #14
 826 0218 FB18     		add	r3, r7, r3
 827 021a FA22     		mov	r2, #250
 828 021c 5200     		lsl	r2, r2, #1
 829 021e 1A80     		strh	r2, [r3]
 830              	.L51:
1634:.\Generated_Source\PSoC4/BLE_eventHandler.c ****                 }
1635:.\Generated_Source\PSoC4/BLE_eventHandler.c ****                 (void)CyBle_GattsExchangeMtuRsp(((CYBLE_GATT_XCHG_MTU_PARAM_T *)eventParam)->connHa
 831              		.loc 1 1635 0
 832 0220 3B68     		ldr	r3, [r7]
 833 0222 0E22     		mov	r2, #14
 834 0224 BA18     		add	r2, r7, r2
 835 0226 1188     		ldrh	r1, [r2]
 836 0228 1A88     		ldrh	r2, [r3]
 837 022a 0023     		mov	r3, #0
 838 022c 1204     		lsl	r2, r2, #16
 839 022e 120C     		lsr	r2, r2, #16
 840 0230 1B0C     		lsr	r3, r3, #16
 841 0232 1B04     		lsl	r3, r3, #16
 842 0234 1343     		orr	r3, r2
 843 0236 181C     		mov	r0, r3
 844 0238 FFF7FEFF 		bl	CyBle_GattsExchangeMtuRsp
 845              	.LBE4:
1636:.\Generated_Source\PSoC4/BLE_eventHandler.c ****             }
1637:.\Generated_Source\PSoC4/BLE_eventHandler.c ****             break;
 846              		.loc 1 1637 0
 847 023c 0AE0     		b	.L44
 848              	.L35:
1638:.\Generated_Source\PSoC4/BLE_eventHandler.c ****     #endif /* CYBLE_GATT_ROLE_SERVER || CYBLE_GATT_ROLE_CLIENT */
1639:.\Generated_Source\PSoC4/BLE_eventHandler.c ****     
1640:.\Generated_Source\PSoC4/BLE_eventHandler.c ****     #if (CYBLE_GATT_ROLE_CLIENT)
1641:.\Generated_Source\PSoC4/BLE_eventHandler.c ****         case CYBLE_EVT_GAPC_SCAN_PROGRESS_RESULT:
1642:.\Generated_Source\PSoC4/BLE_eventHandler.c ****         #ifdef CYBLE_CPS_CLIENT
1643:.\Generated_Source\PSoC4/BLE_eventHandler.c ****                 CyBle_CpscScanProcessEventHandler((CYBLE_GAPC_ADV_REPORT_T *)eventParam);
1644:.\Generated_Source\PSoC4/BLE_eventHandler.c ****         #endif /* CYBLE_CPS_CLIENT */
1645:.\Generated_Source\PSoC4/BLE_eventHandler.c ****             break;
1646:.\Generated_Source\PSoC4/BLE_eventHandler.c ****     #endif /* CYBLE_GATT_ROLE_CLIENT */
1647:.\Generated_Source\PSoC4/BLE_eventHandler.c **** 
1648:.\Generated_Source\PSoC4/BLE_eventHandler.c ****     #if(CYBLE_GATT_ROLE_SERVER)
1649:.\Generated_Source\PSoC4/BLE_eventHandler.c ****         case CYBLE_EVT_GATTS_WRITE_REQ:
1650:.\Generated_Source\PSoC4/BLE_eventHandler.c ****             CyBle_WriteReqHandler((CYBLE_GATTS_WRITE_REQ_PARAM_T *)eventParam);
 849              		.loc 1 1650 0
 850 023e 3B68     		ldr	r3, [r7]
 851 0240 181C     		mov	r0, r3
 852 0242 FFF7FEFF 		bl	CyBle_WriteReqHandler
1651:.\Generated_Source\PSoC4/BLE_eventHandler.c ****             break;
 853              		.loc 1 1651 0
 854 0246 05E0     		b	.L44
 855              	.L39:
ARM GAS  C:\Users\Kevin\AppData\Local\Temp\ccJ9qp0a.s 			page 45


1652:.\Generated_Source\PSoC4/BLE_eventHandler.c **** 
1653:.\Generated_Source\PSoC4/BLE_eventHandler.c ****         case CYBLE_EVT_GATTS_WRITE_CMD_REQ:
1654:.\Generated_Source\PSoC4/BLE_eventHandler.c ****         #ifdef CYBLE_IAS_SERVER
1655:.\Generated_Source\PSoC4/BLE_eventHandler.c ****             if((cyBle_eventHandlerFlag & CYBLE_CALLBACK) != 0u)
1656:.\Generated_Source\PSoC4/BLE_eventHandler.c ****             {
1657:.\Generated_Source\PSoC4/BLE_eventHandler.c ****                 (void)CyBle_IassWriteCmdEventHandler((CYBLE_GATTS_WRITE_REQ_PARAM_T *)eventParam);
1658:.\Generated_Source\PSoC4/BLE_eventHandler.c ****             }
1659:.\Generated_Source\PSoC4/BLE_eventHandler.c ****         #endif /* CYBLE_IAS_SERVER */
1660:.\Generated_Source\PSoC4/BLE_eventHandler.c ****         #ifdef CYBLE_HIDS_SERVER
1661:.\Generated_Source\PSoC4/BLE_eventHandler.c ****             if((cyBle_eventHandlerFlag & CYBLE_CALLBACK) != 0u)
1662:.\Generated_Source\PSoC4/BLE_eventHandler.c ****             {
1663:.\Generated_Source\PSoC4/BLE_eventHandler.c ****                 (void)CyBle_HidssWriteEventHandler((CYBLE_GATTS_WRITE_REQ_PARAM_T *)eventParam);
1664:.\Generated_Source\PSoC4/BLE_eventHandler.c ****             }
1665:.\Generated_Source\PSoC4/BLE_eventHandler.c ****         #endif /* CYBLE_HIDS_SERVER */
1666:.\Generated_Source\PSoC4/BLE_eventHandler.c ****         #ifdef CYBLE_PASS_SERVER
1667:.\Generated_Source\PSoC4/BLE_eventHandler.c ****             if((cyBle_eventHandlerFlag & CYBLE_CALLBACK) != 0u)
1668:.\Generated_Source\PSoC4/BLE_eventHandler.c ****             {
1669:.\Generated_Source\PSoC4/BLE_eventHandler.c ****                 (void)CyBle_PasssWriteCmdEventHandler((CYBLE_GATTS_WRITE_REQ_PARAM_T *)eventParam);
1670:.\Generated_Source\PSoC4/BLE_eventHandler.c ****             }
1671:.\Generated_Source\PSoC4/BLE_eventHandler.c ****         #endif /* CYBLE_PASS_SERVER */
1672:.\Generated_Source\PSoC4/BLE_eventHandler.c ****         #ifdef CYBLE_RTUS_SERVER
1673:.\Generated_Source\PSoC4/BLE_eventHandler.c ****             if((cyBle_eventHandlerFlag & CYBLE_CALLBACK) != 0u)
1674:.\Generated_Source\PSoC4/BLE_eventHandler.c ****             {
1675:.\Generated_Source\PSoC4/BLE_eventHandler.c ****                 (void)CyBle_RtussWriteCmdEventHandler((CYBLE_GATTS_WRITE_REQ_PARAM_T *)eventParam);
1676:.\Generated_Source\PSoC4/BLE_eventHandler.c ****             }
1677:.\Generated_Source\PSoC4/BLE_eventHandler.c ****         #endif /* CYBLE_RTUS_SERVER */
1678:.\Generated_Source\PSoC4/BLE_eventHandler.c ****         #ifdef CYBLE_SCPS_SERVER
1679:.\Generated_Source\PSoC4/BLE_eventHandler.c ****             if((cyBle_eventHandlerFlag & CYBLE_CALLBACK) != 0u)
1680:.\Generated_Source\PSoC4/BLE_eventHandler.c ****             {
1681:.\Generated_Source\PSoC4/BLE_eventHandler.c ****                 (void)CyBle_ScpssWriteEventHandler((CYBLE_GATTS_WRITE_REQ_PARAM_T *)eventParam);
1682:.\Generated_Source\PSoC4/BLE_eventHandler.c ****             }
1683:.\Generated_Source\PSoC4/BLE_eventHandler.c ****         #endif /* CYBLE_SCPS_SERVER */
1684:.\Generated_Source\PSoC4/BLE_eventHandler.c ****             break;
1685:.\Generated_Source\PSoC4/BLE_eventHandler.c ****         
1686:.\Generated_Source\PSoC4/BLE_eventHandler.c ****         case CYBLE_EVT_GATTS_PREP_WRITE_REQ:
1687:.\Generated_Source\PSoC4/BLE_eventHandler.c ****         #ifdef CYBLE_BMS_SERVER
1688:.\Generated_Source\PSoC4/BLE_eventHandler.c ****             CyBle_BmssPrepareWriteRequestEventHandler((CYBLE_GATTS_PREP_WRITE_REQ_PARAM_T *)eventPa
1689:.\Generated_Source\PSoC4/BLE_eventHandler.c ****         #endif /* CYBLE_BMS_SERVER */
1690:.\Generated_Source\PSoC4/BLE_eventHandler.c ****         #ifdef CYBLE_BTS_SERVER
1691:.\Generated_Source\PSoC4/BLE_eventHandler.c ****             if((cyBle_eventHandlerFlag & CYBLE_CALLBACK) != 0u)
1692:.\Generated_Source\PSoC4/BLE_eventHandler.c ****             {
1693:.\Generated_Source\PSoC4/BLE_eventHandler.c ****                 CyBle_BtssPrepareWriteRequestEventHandler((CYBLE_GATTS_PREP_WRITE_REQ_PARAM_T *)eve
1694:.\Generated_Source\PSoC4/BLE_eventHandler.c ****             }
1695:.\Generated_Source\PSoC4/BLE_eventHandler.c ****         #endif /* CYBLE_BTS_SERVER */
1696:.\Generated_Source\PSoC4/BLE_eventHandler.c ****         #ifdef CYBLE_ESS_SERVER
1697:.\Generated_Source\PSoC4/BLE_eventHandler.c ****             if((cyBle_eventHandlerFlag & CYBLE_CALLBACK) != 0u)
1698:.\Generated_Source\PSoC4/BLE_eventHandler.c ****             {
1699:.\Generated_Source\PSoC4/BLE_eventHandler.c ****                 CyBle_EsssPrepareWriteRequestEventHandler((CYBLE_GATTS_PREP_WRITE_REQ_PARAM_T *)eve
1700:.\Generated_Source\PSoC4/BLE_eventHandler.c ****             }
1701:.\Generated_Source\PSoC4/BLE_eventHandler.c ****         #endif /* CYBLE_ESS_SERVER */
1702:.\Generated_Source\PSoC4/BLE_eventHandler.c **** 		#ifdef CYBLE_UDS_SERVER
1703:.\Generated_Source\PSoC4/BLE_eventHandler.c ****             if((cyBle_eventHandlerFlag & CYBLE_CALLBACK) != 0u)
1704:.\Generated_Source\PSoC4/BLE_eventHandler.c ****             {
1705:.\Generated_Source\PSoC4/BLE_eventHandler.c ****                 CyBle_UdssPrepareWriteRequestEventHandler((CYBLE_GATTS_PREP_WRITE_REQ_PARAM_T *)eve
1706:.\Generated_Source\PSoC4/BLE_eventHandler.c ****             }
1707:.\Generated_Source\PSoC4/BLE_eventHandler.c ****         #endif /* CYBLE_UDS_SERVER */
1708:.\Generated_Source\PSoC4/BLE_eventHandler.c ****             break;
ARM GAS  C:\Users\Kevin\AppData\Local\Temp\ccJ9qp0a.s 			page 46


1709:.\Generated_Source\PSoC4/BLE_eventHandler.c **** 
1710:.\Generated_Source\PSoC4/BLE_eventHandler.c ****         case CYBLE_EVT_GATTS_EXEC_WRITE_REQ:
1711:.\Generated_Source\PSoC4/BLE_eventHandler.c ****         #ifdef CYBLE_BMS_SERVER
1712:.\Generated_Source\PSoC4/BLE_eventHandler.c ****             CyBle_BmssExecuteWriteRequestEventHandler((CYBLE_GATTS_EXEC_WRITE_REQ_T *)eventParam);
1713:.\Generated_Source\PSoC4/BLE_eventHandler.c ****         #endif /* CYBLE_BMS_SERVER */
1714:.\Generated_Source\PSoC4/BLE_eventHandler.c ****         #ifdef CYBLE_BTS_SERVER
1715:.\Generated_Source\PSoC4/BLE_eventHandler.c ****             CyBle_BtssExecuteWriteRequestEventHandler((CYBLE_GATTS_EXEC_WRITE_REQ_T *)eventParam);
1716:.\Generated_Source\PSoC4/BLE_eventHandler.c ****         #endif /* CYBLE_BTS_SERVER */
1717:.\Generated_Source\PSoC4/BLE_eventHandler.c ****         #ifdef CYBLE_ESS_SERVER
1718:.\Generated_Source\PSoC4/BLE_eventHandler.c ****             CyBle_EsssExecuteWriteRequestEventHandler((CYBLE_GATTS_EXEC_WRITE_REQ_T *)eventParam);
1719:.\Generated_Source\PSoC4/BLE_eventHandler.c ****         #endif /* CYBLE_ESS_SERVER */
1720:.\Generated_Source\PSoC4/BLE_eventHandler.c **** 		#ifdef CYBLE_UDS_SERVER
1721:.\Generated_Source\PSoC4/BLE_eventHandler.c ****             CyBle_UdssExecuteWriteRequestEventHandler((CYBLE_GATTS_EXEC_WRITE_REQ_T *)eventParam);
1722:.\Generated_Source\PSoC4/BLE_eventHandler.c ****         #endif /* CYBLE_UDS_SERVER */
1723:.\Generated_Source\PSoC4/BLE_eventHandler.c ****             break;
1724:.\Generated_Source\PSoC4/BLE_eventHandler.c ****         
1725:.\Generated_Source\PSoC4/BLE_eventHandler.c ****         case CYBLE_EVT_GATTS_HANDLE_VALUE_CNF:
1726:.\Generated_Source\PSoC4/BLE_eventHandler.c ****             CyBle_ValueConfirmation((CYBLE_CONN_HANDLE_T *)eventParam);
 856              		.loc 1 1726 0
 857 0248 3B68     		ldr	r3, [r7]
 858 024a 181C     		mov	r0, r3
 859 024c FFF7FEFF 		bl	CyBle_ValueConfirmation
1727:.\Generated_Source\PSoC4/BLE_eventHandler.c ****             break;
 860              		.loc 1 1727 0
 861 0250 00E0     		b	.L44
 862              	.L53:
1728:.\Generated_Source\PSoC4/BLE_eventHandler.c ****             
1729:.\Generated_Source\PSoC4/BLE_eventHandler.c ****         case CYBLE_EVT_GATTS_READ_CHAR_VAL_ACCESS_REQ:
1730:.\Generated_Source\PSoC4/BLE_eventHandler.c ****         #ifdef CYBLE_UDS_SERVER
1731:.\Generated_Source\PSoC4/BLE_eventHandler.c ****             CyBle_UdssReadRequestEventHandler((CYBLE_GATTS_CHAR_VAL_READ_REQ_T *)eventParam);
1732:.\Generated_Source\PSoC4/BLE_eventHandler.c ****         #endif /* CYBLE_UDS_SERVER */
1733:.\Generated_Source\PSoC4/BLE_eventHandler.c ****             break;
1734:.\Generated_Source\PSoC4/BLE_eventHandler.c ****             
1735:.\Generated_Source\PSoC4/BLE_eventHandler.c ****     #endif /* CYBLE_GATT_ROLE_SERVER */
1736:.\Generated_Source\PSoC4/BLE_eventHandler.c **** 
1737:.\Generated_Source\PSoC4/BLE_eventHandler.c ****     #if (CYBLE_GATT_ROLE_CLIENT)
1738:.\Generated_Source\PSoC4/BLE_eventHandler.c ****         
1739:.\Generated_Source\PSoC4/BLE_eventHandler.c ****         case CYBLE_EVT_GATTC_READ_BY_GROUP_TYPE_RSP:
1740:.\Generated_Source\PSoC4/BLE_eventHandler.c ****             CyBle_ReadByGroupEventHandler((CYBLE_GATTC_READ_BY_GRP_RSP_PARAM_T *)eventParam);
1741:.\Generated_Source\PSoC4/BLE_eventHandler.c ****             break;
1742:.\Generated_Source\PSoC4/BLE_eventHandler.c **** 
1743:.\Generated_Source\PSoC4/BLE_eventHandler.c ****         case CYBLE_EVT_GATTC_READ_BY_TYPE_RSP:
1744:.\Generated_Source\PSoC4/BLE_eventHandler.c ****             CyBle_ReadByTypeEventHandler((CYBLE_GATTC_READ_BY_TYPE_RSP_PARAM_T *)eventParam);
1745:.\Generated_Source\PSoC4/BLE_eventHandler.c ****             break;
1746:.\Generated_Source\PSoC4/BLE_eventHandler.c **** 
1747:.\Generated_Source\PSoC4/BLE_eventHandler.c ****         case CYBLE_EVT_GATTC_READ_BLOB_RSP:
1748:.\Generated_Source\PSoC4/BLE_eventHandler.c ****         #ifdef CYBLE_ESS_CLIENT
1749:.\Generated_Source\PSoC4/BLE_eventHandler.c ****             CyBle_EsscReadLongRespEventHandler((CYBLE_GATTC_READ_RSP_PARAM_T *)eventParam);
1750:.\Generated_Source\PSoC4/BLE_eventHandler.c ****         #endif /* CYBLE_ESS_CLIENT */
1751:.\Generated_Source\PSoC4/BLE_eventHandler.c ****         #ifdef CYBLE_UDS_CLIENT
1752:.\Generated_Source\PSoC4/BLE_eventHandler.c ****             if((cyBle_eventHandlerFlag & CYBLE_CALLBACK) != 0u)
1753:.\Generated_Source\PSoC4/BLE_eventHandler.c ****             {
1754:.\Generated_Source\PSoC4/BLE_eventHandler.c ****                 CyBle_UdscReadLongRespEventHandler((CYBLE_GATTC_READ_RSP_PARAM_T *)eventParam);
1755:.\Generated_Source\PSoC4/BLE_eventHandler.c ****             }
1756:.\Generated_Source\PSoC4/BLE_eventHandler.c ****         #endif /* CYBLE_UDS_CLIENT */
1757:.\Generated_Source\PSoC4/BLE_eventHandler.c ****             break;
1758:.\Generated_Source\PSoC4/BLE_eventHandler.c ****         
ARM GAS  C:\Users\Kevin\AppData\Local\Temp\ccJ9qp0a.s 			page 47


1759:.\Generated_Source\PSoC4/BLE_eventHandler.c ****         case CYBLE_EVT_GATTC_FIND_INFO_RSP:
1760:.\Generated_Source\PSoC4/BLE_eventHandler.c ****             CyBle_FindInfoEventHandler((CYBLE_GATTC_FIND_INFO_RSP_PARAM_T *)eventParam);
1761:.\Generated_Source\PSoC4/BLE_eventHandler.c ****             break;
1762:.\Generated_Source\PSoC4/BLE_eventHandler.c **** 
1763:.\Generated_Source\PSoC4/BLE_eventHandler.c ****         case CYBLE_EVT_GATTC_ERROR_RSP:
1764:.\Generated_Source\PSoC4/BLE_eventHandler.c ****             CyBle_ErrorResponseEventHandler((CYBLE_GATTC_ERR_RSP_PARAM_T *)eventParam);
1765:.\Generated_Source\PSoC4/BLE_eventHandler.c ****             break;
1766:.\Generated_Source\PSoC4/BLE_eventHandler.c **** 
1767:.\Generated_Source\PSoC4/BLE_eventHandler.c ****         case CYBLE_EVT_GATTC_HANDLE_VALUE_NTF:
1768:.\Generated_Source\PSoC4/BLE_eventHandler.c ****             CyBle_NotificationEventHandler((CYBLE_GATTC_HANDLE_VALUE_NTF_PARAM_T *)eventParam);
1769:.\Generated_Source\PSoC4/BLE_eventHandler.c ****             break;
1770:.\Generated_Source\PSoC4/BLE_eventHandler.c **** 
1771:.\Generated_Source\PSoC4/BLE_eventHandler.c ****         case CYBLE_EVT_GATTC_HANDLE_VALUE_IND:
1772:.\Generated_Source\PSoC4/BLE_eventHandler.c ****             CyBle_GattcIndicationEventHandler((CYBLE_GATTC_HANDLE_VALUE_IND_PARAM_T *)eventParam);
1773:.\Generated_Source\PSoC4/BLE_eventHandler.c ****             CyBle_IndicationEventHandler((CYBLE_GATTC_HANDLE_VALUE_IND_PARAM_T *)eventParam);
1774:.\Generated_Source\PSoC4/BLE_eventHandler.c ****         
1775:.\Generated_Source\PSoC4/BLE_eventHandler.c ****             /* Respond with a Handle Value Confirmation when request handled */
1776:.\Generated_Source\PSoC4/BLE_eventHandler.c ****             if((cyBle_eventHandlerFlag & CYBLE_CALLBACK) == 0u)
1777:.\Generated_Source\PSoC4/BLE_eventHandler.c ****             {
1778:.\Generated_Source\PSoC4/BLE_eventHandler.c ****                 (void)CyBle_GattcConfirmation(((CYBLE_GATTC_HANDLE_VALUE_IND_PARAM_T *)eventParam)-
1779:.\Generated_Source\PSoC4/BLE_eventHandler.c ****             }
1780:.\Generated_Source\PSoC4/BLE_eventHandler.c ****             break;
1781:.\Generated_Source\PSoC4/BLE_eventHandler.c ****         
1782:.\Generated_Source\PSoC4/BLE_eventHandler.c ****         case CYBLE_EVT_GATTC_READ_RSP:
1783:.\Generated_Source\PSoC4/BLE_eventHandler.c ****             CyBle_ReadResponseEventHandler((CYBLE_GATTC_READ_RSP_PARAM_T *)eventParam);
1784:.\Generated_Source\PSoC4/BLE_eventHandler.c ****             break;
1785:.\Generated_Source\PSoC4/BLE_eventHandler.c **** 
1786:.\Generated_Source\PSoC4/BLE_eventHandler.c ****         case CYBLE_EVT_GATTC_WRITE_RSP:
1787:.\Generated_Source\PSoC4/BLE_eventHandler.c ****             CyBle_GattcWriteResponseEventHandler((CYBLE_CONN_HANDLE_T *)eventParam);
1788:.\Generated_Source\PSoC4/BLE_eventHandler.c ****             break;
1789:.\Generated_Source\PSoC4/BLE_eventHandler.c ****             
1790:.\Generated_Source\PSoC4/BLE_eventHandler.c ****         case CYBLE_EVT_GATTC_EXEC_WRITE_RSP:
1791:.\Generated_Source\PSoC4/BLE_eventHandler.c ****         #ifdef CYBLE_BMS_CLIENT
1792:.\Generated_Source\PSoC4/BLE_eventHandler.c ****             CyBle_BmscExecuteWriteResponseEventHandler((CYBLE_GATTC_EXEC_WRITE_RSP_T *)eventParam);
1793:.\Generated_Source\PSoC4/BLE_eventHandler.c ****         #endif /* CYBLE_BMS_CLIENT */
1794:.\Generated_Source\PSoC4/BLE_eventHandler.c ****         #ifdef CYBLE_ESS_CLIENT
1795:.\Generated_Source\PSoC4/BLE_eventHandler.c ****             if((cyBle_eventHandlerFlag & CYBLE_CALLBACK) != 0u)
1796:.\Generated_Source\PSoC4/BLE_eventHandler.c ****             {
1797:.\Generated_Source\PSoC4/BLE_eventHandler.c ****                 CyBle_EsscExecuteWriteResponseEventHandler((CYBLE_GATTC_EXEC_WRITE_RSP_T *)eventPar
1798:.\Generated_Source\PSoC4/BLE_eventHandler.c ****             }
1799:.\Generated_Source\PSoC4/BLE_eventHandler.c ****         #endif /* CYBLE_ESS_CLIENT */
1800:.\Generated_Source\PSoC4/BLE_eventHandler.c ****         #ifdef CYBLE_UDS_CLIENT
1801:.\Generated_Source\PSoC4/BLE_eventHandler.c ****             if((cyBle_eventHandlerFlag & CYBLE_CALLBACK) != 0u)
1802:.\Generated_Source\PSoC4/BLE_eventHandler.c ****             {
1803:.\Generated_Source\PSoC4/BLE_eventHandler.c ****                 CyBle_UdscExecuteWriteResponseEventHandler((CYBLE_GATTC_EXEC_WRITE_RSP_T *)eventPar
1804:.\Generated_Source\PSoC4/BLE_eventHandler.c ****             }
1805:.\Generated_Source\PSoC4/BLE_eventHandler.c ****         #endif /* CYBLE_UDS_CLIENT */
1806:.\Generated_Source\PSoC4/BLE_eventHandler.c ****             break;
1807:.\Generated_Source\PSoC4/BLE_eventHandler.c ****             
1808:.\Generated_Source\PSoC4/BLE_eventHandler.c ****     #endif /* CYBLE_GATT_ROLE_CLIENT */
1809:.\Generated_Source\PSoC4/BLE_eventHandler.c **** 
1810:.\Generated_Source\PSoC4/BLE_eventHandler.c ****     #if((CYBLE_GAP_ROLE_PERIPHERAL || CYBLE_GAP_ROLE_CENTRAL) && (CYBLE_BONDING_REQUIREMENT == CYBL
1811:.\Generated_Source\PSoC4/BLE_eventHandler.c **** 
1812:.\Generated_Source\PSoC4/BLE_eventHandler.c ****         case CYBLE_EVT_PENDING_FLASH_WRITE:
1813:.\Generated_Source\PSoC4/BLE_eventHandler.c ****             cyBle_pendingFlashWrite |= CYBLE_PENDING_STACK_FLASH_WRITE_BIT;
1814:.\Generated_Source\PSoC4/BLE_eventHandler.c ****             break;
1815:.\Generated_Source\PSoC4/BLE_eventHandler.c ****         
ARM GAS  C:\Users\Kevin\AppData\Local\Temp\ccJ9qp0a.s 			page 48


1816:.\Generated_Source\PSoC4/BLE_eventHandler.c ****     #endif  /* (CYBLE_BONDING_REQUIREMENT == CYBLE_BONDING_YES) */
1817:.\Generated_Source\PSoC4/BLE_eventHandler.c ****     
1818:.\Generated_Source\PSoC4/BLE_eventHandler.c ****         default:
1819:.\Generated_Source\PSoC4/BLE_eventHandler.c ****             break;
 863              		.loc 1 1819 0
 864 0252 C046     		mov	r8, r8
 865              	.L44:
1820:.\Generated_Source\PSoC4/BLE_eventHandler.c ****     }
1821:.\Generated_Source\PSoC4/BLE_eventHandler.c **** 
1822:.\Generated_Source\PSoC4/BLE_eventHandler.c ****     if(0u != (cyBle_eventHandlerFlag & (CYBLE_CALLBACK | CYBLE_ENABLE_ALL_EVENTS))) 
 866              		.loc 1 1822 0
 867 0254 0C4B     		ldr	r3, .L54
 868 0256 1B78     		ldrb	r3, [r3]
 869 0258 DBB2     		uxtb	r3, r3
 870 025a 1A1C     		mov	r2, r3
 871 025c 1123     		mov	r3, #17
 872 025e 1340     		and	r3, r2
 873 0260 0FD0     		beq	.L20
1823:.\Generated_Source\PSoC4/BLE_eventHandler.c ****     {
1824:.\Generated_Source\PSoC4/BLE_eventHandler.c ****         cyBle_eventHandlerFlag &= (uint8)~CYBLE_CALLBACK;
 874              		.loc 1 1824 0
 875 0262 094B     		ldr	r3, .L54
 876 0264 1B78     		ldrb	r3, [r3]
 877 0266 DBB2     		uxtb	r3, r3
 878 0268 0122     		mov	r2, #1
 879 026a 9343     		bic	r3, r2
 880 026c DAB2     		uxtb	r2, r3
 881 026e 064B     		ldr	r3, .L54
 882 0270 1A70     		strb	r2, [r3]
1825:.\Generated_Source\PSoC4/BLE_eventHandler.c ****         CyBle_ApplCallback((uint32)eventCode, eventParam);
 883              		.loc 1 1825 0
 884 0272 124B     		ldr	r3, .L54+52
 885 0274 1B68     		ldr	r3, [r3]
 886 0276 FA1D     		add	r2, r7, #7
 887 0278 1178     		ldrb	r1, [r2]
 888 027a 3A68     		ldr	r2, [r7]
 889 027c 081C     		mov	r0, r1
 890 027e 111C     		mov	r1, r2
 891 0280 9847     		blx	r3
 892              	.L20:
1826:.\Generated_Source\PSoC4/BLE_eventHandler.c ****     }
1827:.\Generated_Source\PSoC4/BLE_eventHandler.c **** }
 893              		.loc 1 1827 0
 894 0282 BD46     		mov	sp, r7
 895 0284 04B0     		add	sp, sp, #16
 896              		@ sp needed
 897 0286 80BD     		pop	{r7, pc}
 898              	.L55:
 899              		.align	2
 900              	.L54:
 901 0288 00000000 		.word	cyBle_eventHandlerFlag
 902 028c 00000000 		.word	.L23
 903 0290 00000000 		.word	cyBle_sflashDeviceAddress
 904 0294 7CF1FF0F 		.word	268431740
 905 0298 00000000 		.word	cyBle_deviceAddress
 906 029c 7DF1FF0F 		.word	268431741
 907 02a0 7BF1FF0F 		.word	268431739
ARM GAS  C:\Users\Kevin\AppData\Local\Temp\ccJ9qp0a.s 			page 49


 908 02a4 00000000 		.word	cyBle_state
 909 02a8 00000000 		.word	cyBle_busyStatus
 910 02ac 00000000 		.word	cyBle_authInfo
 911 02b0 00000000 		.word	cyBle_connHandle
 912 02b4 00000000 		.word	cyBle_flashStorage
 913 02b8 00000000 		.word	cyBle_attValuesCCCD
 914 02bc 00000000 		.word	CyBle_ApplCallback
 915              		.cfi_endproc
 916              	.LFE10:
 917              		.size	CyBle_EventHandler, .-CyBle_EventHandler
 918              		.text
 919              	.Letext0:
 920              		.file 2 ".\\Generated_Source\\PSoC4\\cytypes.h"
 921              		.file 3 ".\\Generated_Source\\PSoC4\\BLE_Stack.h"
 922              		.file 4 ".\\Generated_Source\\PSoC4\\BLE_StackHostMain.h"
 923              		.file 5 ".\\Generated_Source\\PSoC4\\BLE_StackGap.h"
 924              		.file 6 ".\\Generated_Source\\PSoC4\\BLE_StackGatt.h"
 925              		.file 7 ".\\Generated_Source\\PSoC4\\BLE_StackGattServer.h"
 926              		.file 8 ".\\Generated_Source\\PSoC4\\BLE.h"
 927              		.file 9 ".\\Generated_Source\\PSoC4\\BLE_gatt.h"
 928              		.file 10 ".\\Generated_Source\\PSoC4\\BLE_eventHandler.h"