ARM GAS  C:\Users\Kevin\AppData\Local\Temp\ccr2zgVc.s 			page 1


   1              		.cpu cortex-m0
   2              		.fpu softvfp
   3              		.eabi_attribute 20, 1
   4              		.eabi_attribute 21, 1
   5              		.eabi_attribute 23, 3
   6              		.eabi_attribute 24, 1
   7              		.eabi_attribute 25, 1
   8              		.eabi_attribute 26, 1
   9              		.eabi_attribute 30, 1
  10              		.eabi_attribute 34, 0
  11              		.eabi_attribute 18, 4
  12              		.code	16
  13              		.file	"BLEProcess.c"
  14              		.text
  15              	.Ltext0:
  16              		.cfi_sections	.debug_frame
  17              		.section	.text.UpdateServocharacteristic,"ax",%progbits
  18              		.align	2
  19              		.global	UpdateServocharacteristic
  20              		.code	16
  21              		.thumb_func
  22              		.type	UpdateServocharacteristic, %function
  23              	UpdateServocharacteristic:
  24              	.LFB36:
  25              		.file 1 ".\\BLEProcess.c"
   1:.\BLEProcess.c **** /* ========================================
   2:.\BLEProcess.c ****  *
   3:.\BLEProcess.c ****  * Copyright YOUR COMPANY, THE YEAR
   4:.\BLEProcess.c ****  * All Rights Reserved
   5:.\BLEProcess.c ****  * UNPUBLISHED, LICENSED SOFTWARE.
   6:.\BLEProcess.c ****  *
   7:.\BLEProcess.c ****  * CONFIDENTIAL AND PROPRIETARY INFORMATION
   8:.\BLEProcess.c ****  * WHICH IS THE PROPERTY OF your company.
   9:.\BLEProcess.c ****  *
  10:.\BLEProcess.c ****  * ========================================
  11:.\BLEProcess.c **** */
  12:.\BLEProcess.c **** #include <main.h>
  13:.\BLEProcess.c **** 
  14:.\BLEProcess.c **** void GeneralEventHandler(uint32 event, void * eventParam)
  15:.\BLEProcess.c **** {
  16:.\BLEProcess.c ****     /* Structure to store data written by Client */
  17:.\BLEProcess.c ****     CYBLE_GATTS_WRITE_REQ_PARAM_T *wrReqParam;   
  18:.\BLEProcess.c **** 
  19:.\BLEProcess.c ****     switch(event)
  20:.\BLEProcess.c ****     {
  21:.\BLEProcess.c ****         case CYBLE_EVT_STACK_ON:
  22:.\BLEProcess.c ****             /* This event is generated when BLE stack is ON */
  23:.\BLEProcess.c ****             CyBle_GappStartAdvertisement(CYBLE_ADVERTISING_FAST);
  24:.\BLEProcess.c ****         break;
  25:.\BLEProcess.c **** 
  26:.\BLEProcess.c ****         case CYBLE_EVT_GAPP_ADVERTISEMENT_START_STOP:
  27:.\BLEProcess.c ****             /* This event is generated whenever Advertisement starts or stops */
  28:.\BLEProcess.c ****             if(CyBle_GetState() == CYBLE_STATE_DISCONNECTED)
  29:.\BLEProcess.c ****             {
  30:.\BLEProcess.c ****                 CyBle_GappStartAdvertisement(CYBLE_ADVERTISING_FAST);
  31:.\BLEProcess.c ****             }
  32:.\BLEProcess.c ****         break;
ARM GAS  C:\Users\Kevin\AppData\Local\Temp\ccr2zgVc.s 			page 2


  33:.\BLEProcess.c **** 
  34:.\BLEProcess.c ****         case CYBLE_EVT_GAP_DEVICE_DISCONNECTED:
  35:.\BLEProcess.c ****             /* This event is generated at GAP disconnection. */
  36:.\BLEProcess.c ****             CyBle_GappStartAdvertisement(CYBLE_ADVERTISING_FAST);
  37:.\BLEProcess.c ****         break;
  38:.\BLEProcess.c ****             
  39:.\BLEProcess.c ****         case CYBLE_EVT_GAP_DEVICE_CONNECTED:
  40:.\BLEProcess.c ****             /* Initiate an MTU exchange request */
  41:.\BLEProcess.c ****             CyBle_GattcExchangeMtuReq(cyBle_connHandle, CYBLE_GATT_MTU);
  42:.\BLEProcess.c ****         break;
  43:.\BLEProcess.c ****  
  44:.\BLEProcess.c ****         case CYBLE_EVT_GATTS_WRITE_REQ:
  45:.\BLEProcess.c ****             /* This event is generated when the connected Central */
  46:.\BLEProcess.c ****             /* device sends a Write request. */
  47:.\BLEProcess.c ****             /* The parameter ‘eventParam’ contains the data written */
  48:.\BLEProcess.c ****             
  49:.\BLEProcess.c ****             /* Extract the Write data sent by Client */
  50:.\BLEProcess.c ****             wrReqParam = (CYBLE_GATTS_WRITE_REQ_PARAM_T *) eventParam;
  51:.\BLEProcess.c **** 
  52:.\BLEProcess.c ****             /* If the attribute handle of the characteristic written to
  53:.\BLEProcess.c ****              * is equal to that of RGB_LED characteristic, then extract
  54:.\BLEProcess.c ****              * the RGB LED data */
  55:.\BLEProcess.c ****             if(CYBLE_SERVOS_SERVO_CONTROL_CHAR_HANDLE ==
  56:.\BLEProcess.c ****                                     wrReqParam->handleValPair.attrHandle)
  57:.\BLEProcess.c ****             {
  58:.\BLEProcess.c ****                 /* Store RGB LED data in local array */
  59:.\BLEProcess.c ****                 int i;
  60:.\BLEProcess.c ****                 for (i=0;i<DATA_SET_LEN;i++)
  61:.\BLEProcess.c ****                 {
  62:.\BLEProcess.c ****                     DataSet[i] = wrReqParam->handleValPair.value.val[i];
  63:.\BLEProcess.c ****                 }
  64:.\BLEProcess.c **** 
  65:.\BLEProcess.c ****                 Pin_1_Write(0u); //Blue on
  66:.\BLEProcess.c ****                 //CyDelay(300u);
  67:.\BLEProcess.c ****                 
  68:.\BLEProcess.c ****                 //CyDelay(300u);
  69:.\BLEProcess.c ****                 
  70:.\BLEProcess.c ****                 /* Write new DataSet to SFlash */
  71:.\BLEProcess.c ****                 WriteArraySFlash(DataSet, DATA_SET_LEN);
  72:.\BLEProcess.c ****    
  73:.\BLEProcess.c **** 
  74:.\BLEProcess.c ****                 /* Update the GATT DB for DataSet characteristics*/
  75:.\BLEProcess.c ****                 UpdateServocharacteristic(DataSet, sizeof(DataSet),CYBLE_SERVOS_SERVO_CONTROL_CHAR_
  76:.\BLEProcess.c ****                 Pin_1_Write(1u); //Blue off
  77:.\BLEProcess.c ****             }
  78:.\BLEProcess.c **** 
  79:.\BLEProcess.c ****             /* Send the response to the write request rreceived. */
  80:.\BLEProcess.c ****             CyBle_GattsWriteRsp(cyBle_connHandle);          
  81:.\BLEProcess.c ****         break;
  82:.\BLEProcess.c **** 
  83:.\BLEProcess.c ****         case CYBLE_EVT_GATT_DISCONNECT_IND:
  84:.\BLEProcess.c ****             /* This event is generated at GATT disconnection. */
  85:.\BLEProcess.c ****      
  86:.\BLEProcess.c ****             /* Register the new color in GATT DB*/
  87:.\BLEProcess.c ****             UpdateServocharacteristic(DataSet, sizeof(DataSet), CYBLE_SERVOS_SERVO_CONTROL_CHAR_HAN
  88:.\BLEProcess.c ****         break;
  89:.\BLEProcess.c **** 
ARM GAS  C:\Users\Kevin\AppData\Local\Temp\ccr2zgVc.s 			page 3


  90:.\BLEProcess.c ****         break;
  91:.\BLEProcess.c ****  
  92:.\BLEProcess.c ****         default:
  93:.\BLEProcess.c ****         
  94:.\BLEProcess.c ****         break;
  95:.\BLEProcess.c ****     }
  96:.\BLEProcess.c **** }
  97:.\BLEProcess.c **** 
  98:.\BLEProcess.c **** void UpdateServocharacteristic(uint8* DataSet, uint8 len, uint16 attrHandle)
  99:.\BLEProcess.c **** {
  26              		.loc 1 99 0
  27              		.cfi_startproc
  28              	.LVL0:
  29 0000 70B5     		push	{r4, r5, r6, lr}
  30              		.cfi_def_cfa_offset 16
  31              		.cfi_offset 4, -16
  32              		.cfi_offset 5, -12
  33              		.cfi_offset 6, -8
  34              		.cfi_offset 14, -4
  35 0002 84B0     		sub	sp, sp, #16
  36              		.cfi_def_cfa_offset 32
  37 0004 051C     		mov	r5, r0
  38 0006 0C1C     		mov	r4, r1
  39 0008 161C     		mov	r6, r2
 100:.\BLEProcess.c ****     Pin_3_Write(0u); //Red on
  40              		.loc 1 100 0
  41 000a 0020     		mov	r0, #0
  42              	.LVL1:
  43 000c FFF7FEFF 		bl	Pin_3_Write
  44              	.LVL2:
 101:.\BLEProcess.c ****     //CyDelay(300u);
 102:.\BLEProcess.c ****     
 103:.\BLEProcess.c ****     //CyDelay(300u);
 104:.\BLEProcess.c ****     
 105:.\BLEProcess.c **** 	/* 'rgbHandle' stores RGB control data parameters */
 106:.\BLEProcess.c **** 	CYBLE_GATT_HANDLE_VALUE_PAIR_T		dataHandle;
 107:.\BLEProcess.c **** 
 108:.\BLEProcess.c **** 	/* Update RGB control handle with new values */
 109:.\BLEProcess.c **** 	dataHandle.attrHandle = attrHandle;
  45              		.loc 1 109 0
  46 0010 01A8     		add	r0, sp, #4
  47 0012 0681     		strh	r6, [r0, #8]
 110:.\BLEProcess.c **** 	dataHandle.value.val = DataSet;
  48              		.loc 1 110 0
  49 0014 0195     		str	r5, [sp, #4]
 111:.\BLEProcess.c **** 	dataHandle.value.len = len;
  50              		.loc 1 111 0
  51 0016 8480     		strh	r4, [r0, #4]
 112:.\BLEProcess.c **** 	
 113:.\BLEProcess.c **** 	/* Update the RGB LED attribute value. This will allow 
 114:.\BLEProcess.c **** 	* Client device to read the existing color values over 
 115:.\BLEProcess.c **** 	* RGB LED characteristic */
 116:.\BLEProcess.c **** 	CyBle_GattsWriteAttributeValue(&dataHandle, 
  52              		.loc 1 116 0
  53 0018 0021     		mov	r1, #0
  54 001a 044A     		ldr	r2, .L2
  55 001c 0023     		mov	r3, #0
ARM GAS  C:\Users\Kevin\AppData\Local\Temp\ccr2zgVc.s 			page 4


  56 001e FFF7FEFF 		bl	CyBle_GattsWriteAttributeValue
  57              	.LVL3:
 117:.\BLEProcess.c **** 									FALSE, 
 118:.\BLEProcess.c **** 									&cyBle_connHandle, 
 119:.\BLEProcess.c **** 									CYBLE_GATT_DB_LOCALLY_INITIATED);
 120:.\BLEProcess.c ****     Pin_3_Write(1u); //Red off
  58              		.loc 1 120 0
  59 0022 0120     		mov	r0, #1
  60 0024 FFF7FEFF 		bl	Pin_3_Write
  61              	.LVL4:
 121:.\BLEProcess.c **** }
  62              		.loc 1 121 0
  63 0028 04B0     		add	sp, sp, #16
  64              		@ sp needed
  65              	.LVL5:
  66 002a 70BD     		pop	{r4, r5, r6, pc}
  67              	.L3:
  68              		.align	2
  69              	.L2:
  70 002c 00000000 		.word	cyBle_connHandle
  71              		.cfi_endproc
  72              	.LFE36:
  73              		.size	UpdateServocharacteristic, .-UpdateServocharacteristic
  74              		.section	.text.GeneralEventHandler,"ax",%progbits
  75              		.align	2
  76              		.global	GeneralEventHandler
  77              		.code	16
  78              		.thumb_func
  79              		.type	GeneralEventHandler, %function
  80              	GeneralEventHandler:
  81              	.LFB35:
  15:.\BLEProcess.c ****     /* Structure to store data written by Client */
  82              		.loc 1 15 0
  83              		.cfi_startproc
  84              	.LVL6:
  85 0000 10B5     		push	{r4, lr}
  86              		.cfi_def_cfa_offset 8
  87              		.cfi_offset 4, -8
  88              		.cfi_offset 14, -4
  19:.\BLEProcess.c ****     {
  89              		.loc 1 19 0
  90 0002 2728     		cmp	r0, #39
  91 0004 1CD0     		beq	.L6
  92 0006 04D8     		bhi	.L7
  93 0008 0128     		cmp	r0, #1
  94 000a 09D0     		beq	.L8
  95 000c 2628     		cmp	r0, #38
  96 000e 0BD0     		beq	.L9
  97 0010 4AE0     		b	.L4
  98              	.L7:
  99 0012 4228     		cmp	r0, #66
 100 0014 43D0     		beq	.L10
 101 0016 4C28     		cmp	r0, #76
 102 0018 1CD0     		beq	.L11
 103 001a 2828     		cmp	r0, #40
 104 001c 44D1     		bne	.L4
 105 001e 0BE0     		b	.L12
ARM GAS  C:\Users\Kevin\AppData\Local\Temp\ccr2zgVc.s 			page 5


 106              	.L8:
  23:.\BLEProcess.c ****         break;
 107              		.loc 1 23 0
 108 0020 0020     		mov	r0, #0
 109              	.LVL7:
 110 0022 FFF7FEFF 		bl	CyBle_GappStartAdvertisement
 111              	.LVL8:
  24:.\BLEProcess.c **** 
 112              		.loc 1 24 0
 113 0026 3FE0     		b	.L4
 114              	.LVL9:
 115              	.L9:
  28:.\BLEProcess.c ****             {
 116              		.loc 1 28 0
 117 0028 204B     		ldr	r3, .L17
 118 002a 1B78     		ldrb	r3, [r3]
 119 002c 042B     		cmp	r3, #4
 120 002e 3BD1     		bne	.L4
  30:.\BLEProcess.c ****             }
 121              		.loc 1 30 0
 122 0030 0020     		mov	r0, #0
 123              	.LVL10:
 124 0032 FFF7FEFF 		bl	CyBle_GappStartAdvertisement
 125              	.LVL11:
 126 0036 37E0     		b	.L4
 127              	.LVL12:
 128              	.L12:
  36:.\BLEProcess.c ****         break;
 129              		.loc 1 36 0
 130 0038 0020     		mov	r0, #0
 131              	.LVL13:
 132 003a FFF7FEFF 		bl	CyBle_GappStartAdvertisement
 133              	.LVL14:
  37:.\BLEProcess.c ****             
 134              		.loc 1 37 0
 135 003e 33E0     		b	.L4
 136              	.LVL15:
 137              	.L6:
  41:.\BLEProcess.c ****         break;
 138              		.loc 1 41 0
 139 0040 1B4A     		ldr	r2, .L17+4
 140 0042 1378     		ldrb	r3, [r2]
 141 0044 5078     		ldrb	r0, [r2, #1]
 142              	.LVL16:
 143 0046 0002     		lsl	r0, r0, #8
 144 0048 1843     		orr	r0, r3
 145 004a FA21     		mov	r1, #250
 146              	.LVL17:
 147 004c 4900     		lsl	r1, r1, #1
 148 004e FFF7FEFF 		bl	CyBle_GattcExchangeMtuReq
 149              	.LVL18:
  42:.\BLEProcess.c ****  
 150              		.loc 1 42 0
 151 0052 29E0     		b	.L4
 152              	.LVL19:
 153              	.L11:
  56:.\BLEProcess.c ****             {
ARM GAS  C:\Users\Kevin\AppData\Local\Temp\ccr2zgVc.s 			page 6


 154              		.loc 1 56 0
 155 0054 8B89     		ldrh	r3, [r1, #12]
  55:.\BLEProcess.c ****                                     wrReqParam->handleValPair.attrHandle)
 156              		.loc 1 55 0
 157 0056 0E2B     		cmp	r3, #14
 158 0058 19D1     		bne	.L14
 159 005a 05E0     		b	.L16
 160              	.LVL20:
 161              	.L15:
 162              	.LBB2:
  62:.\BLEProcess.c ****                 }
 163              		.loc 1 62 0 discriminator 3
 164 005c 4A68     		ldr	r2, [r1, #4]
 165 005e D05C     		ldrb	r0, [r2, r3]
 166 0060 144A     		ldr	r2, .L17+8
 167 0062 D054     		strb	r0, [r2, r3]
  60:.\BLEProcess.c ****                 {
 168              		.loc 1 60 0 discriminator 3
 169 0064 0133     		add	r3, r3, #1
 170              	.LVL21:
 171 0066 00E0     		b	.L13
 172              	.LVL22:
 173              	.L16:
 174              	.LBE2:
 175 0068 0023     		mov	r3, #0
 176              	.LVL23:
 177              	.L13:
 178              	.LBB3:
  60:.\BLEProcess.c ****                 {
 179              		.loc 1 60 0 is_stmt 0 discriminator 1
 180 006a 332B     		cmp	r3, #51
 181 006c F6DD     		ble	.L15
  65:.\BLEProcess.c ****                 //CyDelay(300u);
 182              		.loc 1 65 0 is_stmt 1
 183 006e 0020     		mov	r0, #0
 184 0070 FFF7FEFF 		bl	Pin_1_Write
 185              	.LVL24:
  71:.\BLEProcess.c ****    
 186              		.loc 1 71 0
 187 0074 0F4C     		ldr	r4, .L17+8
 188 0076 201C     		mov	r0, r4
 189 0078 3421     		mov	r1, #52
 190 007a FFF7FEFF 		bl	WriteArraySFlash
 191              	.LVL25:
  75:.\BLEProcess.c ****                 Pin_1_Write(1u); //Blue off
 192              		.loc 1 75 0
 193 007e 201C     		mov	r0, r4
 194 0080 3421     		mov	r1, #52
 195 0082 0E22     		mov	r2, #14
 196 0084 FFF7FEFF 		bl	UpdateServocharacteristic
 197              	.LVL26:
  76:.\BLEProcess.c ****             }
 198              		.loc 1 76 0
 199 0088 0120     		mov	r0, #1
 200 008a FFF7FEFF 		bl	Pin_1_Write
 201              	.LVL27:
 202              	.L14:
ARM GAS  C:\Users\Kevin\AppData\Local\Temp\ccr2zgVc.s 			page 7


 203              	.LBE3:
  80:.\BLEProcess.c ****         break;
 204              		.loc 1 80 0
 205 008e 084A     		ldr	r2, .L17+4
 206 0090 1378     		ldrb	r3, [r2]
 207 0092 5078     		ldrb	r0, [r2, #1]
 208 0094 0002     		lsl	r0, r0, #8
 209 0096 1843     		orr	r0, r3
 210 0098 FFF7FEFF 		bl	CyBle_GattsWriteRsp
 211              	.LVL28:
  81:.\BLEProcess.c **** 
 212              		.loc 1 81 0
 213 009c 04E0     		b	.L4
 214              	.LVL29:
 215              	.L10:
  87:.\BLEProcess.c ****         break;
 216              		.loc 1 87 0
 217 009e 0548     		ldr	r0, .L17+8
 218              	.LVL30:
 219 00a0 3421     		mov	r1, #52
 220              	.LVL31:
 221 00a2 0E22     		mov	r2, #14
 222 00a4 FFF7FEFF 		bl	UpdateServocharacteristic
 223              	.LVL32:
 224              	.L4:
  96:.\BLEProcess.c **** 
 225              		.loc 1 96 0
 226              		@ sp needed
 227 00a8 10BD     		pop	{r4, pc}
 228              	.L18:
 229 00aa C046     		.align	2
 230              	.L17:
 231 00ac 00000000 		.word	cyBle_state
 232 00b0 00000000 		.word	cyBle_connHandle
 233 00b4 00000000 		.word	DataSet
 234              		.cfi_endproc
 235              	.LFE35:
 236              		.size	GeneralEventHandler, .-GeneralEventHandler
 237              		.comm	DataSet,52,4
 238              		.text
 239              	.Letext0:
 240              		.file 2 "Generated_Source\\PSoC4/cytypes.h"
 241              		.file 3 "Generated_Source\\PSoC4/BLE_Stack.h"
 242              		.file 4 "Generated_Source\\PSoC4/BLE_StackGatt.h"
 243              		.file 5 "Generated_Source\\PSoC4/BLE_StackGattServer.h"
 244              		.file 6 "Generated_Source\\PSoC4/BLE_eventHandler.h"
 245              		.file 7 "./main.h"
 246              		.file 8 "Generated_Source\\PSoC4/Pin_3.h"
 247              		.file 9 "Generated_Source\\PSoC4/Pin_1.h"
 248              		.file 10 "./WriteUserSFlash.h"
 249              		.file 11 "Generated_Source\\PSoC4/BLE_StackGattDb.h"
 250              		.file 12 "Generated_Source\\PSoC4/BLE.h"
 251              		.file 13 "Generated_Source\\PSoC4/BLE_StackGattClient.h"