ARM GAS  C:\Users\Kevin\AppData\Local\Temp\ccbQlqyF.s 			page 1


   1              		.cpu cortex-m0
   2              		.fpu softvfp
   3              		.eabi_attribute 20, 1
   4              		.eabi_attribute 21, 1
   5              		.eabi_attribute 23, 3
   6              		.eabi_attribute 24, 1
   7              		.eabi_attribute 25, 1
   8              		.eabi_attribute 26, 1
   9              		.eabi_attribute 30, 1
  10              		.eabi_attribute 34, 0
  11              		.eabi_attribute 18, 4
  12              		.code	16
  13              		.file	"cyfitter_cfg.c"
  14              		.text
  15              	.Ltext0:
  16              		.cfi_sections	.debug_frame
  17              		.section	.text.CyClockStartupError,"ax",%progbits
  18              		.align	2
  19              		.code	16
  20              		.thumb_func
  21              		.type	CyClockStartupError, %function
  22              	CyClockStartupError:
  23              	.LFB5:
  24              		.file 1 ".\\Generated_Source\\PSoC4\\cyfitter_cfg.c"
   1:.\Generated_Source\PSoC4/cyfitter_cfg.c **** /*******************************************************************************
   2:.\Generated_Source\PSoC4/cyfitter_cfg.c **** * File Name: cyfitter_cfg.c
   3:.\Generated_Source\PSoC4/cyfitter_cfg.c **** * 
   4:.\Generated_Source\PSoC4/cyfitter_cfg.c **** * PSoC Creator  3.3
   5:.\Generated_Source\PSoC4/cyfitter_cfg.c **** *
   6:.\Generated_Source\PSoC4/cyfitter_cfg.c **** * Description:
   7:.\Generated_Source\PSoC4/cyfitter_cfg.c **** * This file contains device initialization code.
   8:.\Generated_Source\PSoC4/cyfitter_cfg.c **** * Except for the user defined sections in CyClockStartupError(), this file should not be modified.
   9:.\Generated_Source\PSoC4/cyfitter_cfg.c **** * This file is automatically generated by PSoC Creator.
  10:.\Generated_Source\PSoC4/cyfitter_cfg.c **** *
  11:.\Generated_Source\PSoC4/cyfitter_cfg.c **** ********************************************************************************
  12:.\Generated_Source\PSoC4/cyfitter_cfg.c **** * Copyright (c) 2007-2015 Cypress Semiconductor.  All rights reserved.
  13:.\Generated_Source\PSoC4/cyfitter_cfg.c **** * You may use this file only in accordance with the license, terms, conditions, 
  14:.\Generated_Source\PSoC4/cyfitter_cfg.c **** * disclaimers, and limitations in the end user license agreement accompanying 
  15:.\Generated_Source\PSoC4/cyfitter_cfg.c **** * the software package with which this file was provided.
  16:.\Generated_Source\PSoC4/cyfitter_cfg.c **** ********************************************************************************/
  17:.\Generated_Source\PSoC4/cyfitter_cfg.c **** 
  18:.\Generated_Source\PSoC4/cyfitter_cfg.c **** #include <string.h>
  19:.\Generated_Source\PSoC4/cyfitter_cfg.c **** #include "cytypes.h"
  20:.\Generated_Source\PSoC4/cyfitter_cfg.c **** #include "cydevice_trm.h"
  21:.\Generated_Source\PSoC4/cyfitter_cfg.c **** #include "cyfitter.h"
  22:.\Generated_Source\PSoC4/cyfitter_cfg.c **** #include "CyLib.h"
  23:.\Generated_Source\PSoC4/cyfitter_cfg.c **** #include "CyLFClk.h"
  24:.\Generated_Source\PSoC4/cyfitter_cfg.c **** #include "cyfitter_cfg.h"
  25:.\Generated_Source\PSoC4/cyfitter_cfg.c **** 
  26:.\Generated_Source\PSoC4/cyfitter_cfg.c **** #define CY_NEED_CYCLOCKSTARTUPERROR 1
  27:.\Generated_Source\PSoC4/cyfitter_cfg.c **** 
  28:.\Generated_Source\PSoC4/cyfitter_cfg.c **** 
  29:.\Generated_Source\PSoC4/cyfitter_cfg.c **** #if defined(__GNUC__) || defined(__ARMCC_VERSION)
  30:.\Generated_Source\PSoC4/cyfitter_cfg.c ****     #define CYPACKED 
  31:.\Generated_Source\PSoC4/cyfitter_cfg.c ****     #define CYPACKED_ATTR __attribute__ ((packed))
  32:.\Generated_Source\PSoC4/cyfitter_cfg.c ****     #define CYALIGNED __attribute__ ((aligned))
  33:.\Generated_Source\PSoC4/cyfitter_cfg.c ****     #define CY_CFG_UNUSED __attribute__ ((unused))
ARM GAS  C:\Users\Kevin\AppData\Local\Temp\ccbQlqyF.s 			page 2


  34:.\Generated_Source\PSoC4/cyfitter_cfg.c ****     #define CY_CFG_SECTION __attribute__ ((section(".psocinit")))
  35:.\Generated_Source\PSoC4/cyfitter_cfg.c ****     
  36:.\Generated_Source\PSoC4/cyfitter_cfg.c ****     #if defined(__ARMCC_VERSION)
  37:.\Generated_Source\PSoC4/cyfitter_cfg.c ****         #define CY_CFG_MEMORY_BARRIER() __memory_changed()
  38:.\Generated_Source\PSoC4/cyfitter_cfg.c ****     #else
  39:.\Generated_Source\PSoC4/cyfitter_cfg.c ****         #define CY_CFG_MEMORY_BARRIER() __sync_synchronize()
  40:.\Generated_Source\PSoC4/cyfitter_cfg.c ****     #endif
  41:.\Generated_Source\PSoC4/cyfitter_cfg.c ****     
  42:.\Generated_Source\PSoC4/cyfitter_cfg.c **** #elif defined(__ICCARM__)
  43:.\Generated_Source\PSoC4/cyfitter_cfg.c ****     #include <intrinsics.h>
  44:.\Generated_Source\PSoC4/cyfitter_cfg.c **** 
  45:.\Generated_Source\PSoC4/cyfitter_cfg.c ****     #define CYPACKED __packed
  46:.\Generated_Source\PSoC4/cyfitter_cfg.c ****     #define CYPACKED_ATTR 
  47:.\Generated_Source\PSoC4/cyfitter_cfg.c ****     #define CYALIGNED _Pragma("data_alignment=4")
  48:.\Generated_Source\PSoC4/cyfitter_cfg.c ****     #define CY_CFG_UNUSED _Pragma("diag_suppress=Pe177")
  49:.\Generated_Source\PSoC4/cyfitter_cfg.c ****     #define CY_CFG_SECTION _Pragma("location=\".psocinit\"")
  50:.\Generated_Source\PSoC4/cyfitter_cfg.c ****     
  51:.\Generated_Source\PSoC4/cyfitter_cfg.c ****     #define CY_CFG_MEMORY_BARRIER() __DMB()
  52:.\Generated_Source\PSoC4/cyfitter_cfg.c ****     
  53:.\Generated_Source\PSoC4/cyfitter_cfg.c **** #else
  54:.\Generated_Source\PSoC4/cyfitter_cfg.c ****     #error Unsupported toolchain
  55:.\Generated_Source\PSoC4/cyfitter_cfg.c **** #endif
  56:.\Generated_Source\PSoC4/cyfitter_cfg.c **** 
  57:.\Generated_Source\PSoC4/cyfitter_cfg.c **** 
  58:.\Generated_Source\PSoC4/cyfitter_cfg.c **** CY_CFG_UNUSED
  59:.\Generated_Source\PSoC4/cyfitter_cfg.c **** static void CYMEMZERO(void *s, size_t n);
  60:.\Generated_Source\PSoC4/cyfitter_cfg.c **** CY_CFG_UNUSED
  61:.\Generated_Source\PSoC4/cyfitter_cfg.c **** static void CYMEMZERO(void *s, size_t n)
  62:.\Generated_Source\PSoC4/cyfitter_cfg.c **** {
  63:.\Generated_Source\PSoC4/cyfitter_cfg.c **** 	(void)memset(s, 0, n);
  64:.\Generated_Source\PSoC4/cyfitter_cfg.c **** }
  65:.\Generated_Source\PSoC4/cyfitter_cfg.c **** CY_CFG_UNUSED
  66:.\Generated_Source\PSoC4/cyfitter_cfg.c **** static void CYCONFIGCPY(void *dest, const void *src, size_t n);
  67:.\Generated_Source\PSoC4/cyfitter_cfg.c **** CY_CFG_UNUSED
  68:.\Generated_Source\PSoC4/cyfitter_cfg.c **** static void CYCONFIGCPY(void *dest, const void *src, size_t n)
  69:.\Generated_Source\PSoC4/cyfitter_cfg.c **** {
  70:.\Generated_Source\PSoC4/cyfitter_cfg.c **** 	(void)memcpy(dest, src, n);
  71:.\Generated_Source\PSoC4/cyfitter_cfg.c **** }
  72:.\Generated_Source\PSoC4/cyfitter_cfg.c **** CY_CFG_UNUSED
  73:.\Generated_Source\PSoC4/cyfitter_cfg.c **** static void CYCONFIGCPYCODE(void *dest, const void *src, size_t n);
  74:.\Generated_Source\PSoC4/cyfitter_cfg.c **** CY_CFG_UNUSED
  75:.\Generated_Source\PSoC4/cyfitter_cfg.c **** static void CYCONFIGCPYCODE(void *dest, const void *src, size_t n)
  76:.\Generated_Source\PSoC4/cyfitter_cfg.c **** {
  77:.\Generated_Source\PSoC4/cyfitter_cfg.c **** 	(void)memcpy(dest, src, n);
  78:.\Generated_Source\PSoC4/cyfitter_cfg.c **** }
  79:.\Generated_Source\PSoC4/cyfitter_cfg.c **** 
  80:.\Generated_Source\PSoC4/cyfitter_cfg.c **** 
  81:.\Generated_Source\PSoC4/cyfitter_cfg.c **** 
  82:.\Generated_Source\PSoC4/cyfitter_cfg.c **** /* Clock startup error codes                                                   */
  83:.\Generated_Source\PSoC4/cyfitter_cfg.c **** #define CYCLOCKSTART_NO_ERROR    0u
  84:.\Generated_Source\PSoC4/cyfitter_cfg.c **** #define CYCLOCKSTART_XTAL_ERROR  1u
  85:.\Generated_Source\PSoC4/cyfitter_cfg.c **** #define CYCLOCKSTART_32KHZ_ERROR 2u
  86:.\Generated_Source\PSoC4/cyfitter_cfg.c **** #define CYCLOCKSTART_PLL_ERROR   3u
  87:.\Generated_Source\PSoC4/cyfitter_cfg.c **** 
  88:.\Generated_Source\PSoC4/cyfitter_cfg.c **** #ifdef CY_NEED_CYCLOCKSTARTUPERROR
  89:.\Generated_Source\PSoC4/cyfitter_cfg.c **** /*******************************************************************************
  90:.\Generated_Source\PSoC4/cyfitter_cfg.c **** * Function Name: CyClockStartupError
ARM GAS  C:\Users\Kevin\AppData\Local\Temp\ccbQlqyF.s 			page 3


  91:.\Generated_Source\PSoC4/cyfitter_cfg.c **** ********************************************************************************
  92:.\Generated_Source\PSoC4/cyfitter_cfg.c **** * Summary:
  93:.\Generated_Source\PSoC4/cyfitter_cfg.c **** *  If an error is encountered during clock configuration (crystal startup error,
  94:.\Generated_Source\PSoC4/cyfitter_cfg.c **** *  PLL lock error, etc.), the system will end up here.  Unless reimplemented by
  95:.\Generated_Source\PSoC4/cyfitter_cfg.c **** *  the customer, this function will stop in an infinite loop.
  96:.\Generated_Source\PSoC4/cyfitter_cfg.c **** *
  97:.\Generated_Source\PSoC4/cyfitter_cfg.c **** * Parameters:
  98:.\Generated_Source\PSoC4/cyfitter_cfg.c **** *   void
  99:.\Generated_Source\PSoC4/cyfitter_cfg.c **** *
 100:.\Generated_Source\PSoC4/cyfitter_cfg.c **** * Return:
 101:.\Generated_Source\PSoC4/cyfitter_cfg.c **** *   void
 102:.\Generated_Source\PSoC4/cyfitter_cfg.c **** *
 103:.\Generated_Source\PSoC4/cyfitter_cfg.c **** *******************************************************************************/
 104:.\Generated_Source\PSoC4/cyfitter_cfg.c **** CY_CFG_UNUSED
 105:.\Generated_Source\PSoC4/cyfitter_cfg.c **** static void CyClockStartupError(uint8 errorCode);
 106:.\Generated_Source\PSoC4/cyfitter_cfg.c **** CY_CFG_UNUSED
 107:.\Generated_Source\PSoC4/cyfitter_cfg.c **** static void CyClockStartupError(uint8 errorCode)
 108:.\Generated_Source\PSoC4/cyfitter_cfg.c **** {
  25              		.loc 1 108 0
  26              		.cfi_startproc
  27              	.LVL0:
  28              	.L2:
 109:.\Generated_Source\PSoC4/cyfitter_cfg.c ****     /* To remove the compiler warning if errorCode not used.                */
 110:.\Generated_Source\PSoC4/cyfitter_cfg.c ****     errorCode = errorCode;
 111:.\Generated_Source\PSoC4/cyfitter_cfg.c **** 
 112:.\Generated_Source\PSoC4/cyfitter_cfg.c ****     /* `#START CyClockStartupError` */
 113:.\Generated_Source\PSoC4/cyfitter_cfg.c **** 
 114:.\Generated_Source\PSoC4/cyfitter_cfg.c ****     /* If we have a clock startup error (bad MHz crystal, PLL lock, etc.),  */
 115:.\Generated_Source\PSoC4/cyfitter_cfg.c ****     /* we will end up here to allow the customer to implement something to  */
 116:.\Generated_Source\PSoC4/cyfitter_cfg.c ****     /* deal with the clock condition.                                       */
 117:.\Generated_Source\PSoC4/cyfitter_cfg.c **** 
 118:.\Generated_Source\PSoC4/cyfitter_cfg.c ****     /* `#END` */
 119:.\Generated_Source\PSoC4/cyfitter_cfg.c **** 
 120:.\Generated_Source\PSoC4/cyfitter_cfg.c ****     /* If nothing else, stop here since the clocks have not started         */
 121:.\Generated_Source\PSoC4/cyfitter_cfg.c ****     /* correctly.                                                           */
 122:.\Generated_Source\PSoC4/cyfitter_cfg.c ****     while(1) {}
  29              		.loc 1 122 0 discriminator 1
  30 0000 FEE7     		b	.L2
  31              		.cfi_endproc
  32              	.LFE5:
  33              		.size	CyClockStartupError, .-CyClockStartupError
  34 0002 C046     		.section	.text.cfg_write_bytes32,"ax",%progbits
  35              		.align	2
  36              		.code	16
  37              		.thumb_func
  38              		.type	cfg_write_bytes32, %function
  39              	cfg_write_bytes32:
  40              	.LFB6:
 123:.\Generated_Source\PSoC4/cyfitter_cfg.c **** }
 124:.\Generated_Source\PSoC4/cyfitter_cfg.c **** #endif
 125:.\Generated_Source\PSoC4/cyfitter_cfg.c **** 
 126:.\Generated_Source\PSoC4/cyfitter_cfg.c **** #define CY_CFG_BASE_ADDR_COUNT 8u
 127:.\Generated_Source\PSoC4/cyfitter_cfg.c **** CYPACKED typedef struct
 128:.\Generated_Source\PSoC4/cyfitter_cfg.c **** {
 129:.\Generated_Source\PSoC4/cyfitter_cfg.c **** 	uint8 offset;
 130:.\Generated_Source\PSoC4/cyfitter_cfg.c **** 	uint8 value;
 131:.\Generated_Source\PSoC4/cyfitter_cfg.c **** } CYPACKED_ATTR cy_cfg_addrvalue_t;
ARM GAS  C:\Users\Kevin\AppData\Local\Temp\ccbQlqyF.s 			page 4


 132:.\Generated_Source\PSoC4/cyfitter_cfg.c **** 
 133:.\Generated_Source\PSoC4/cyfitter_cfg.c **** 
 134:.\Generated_Source\PSoC4/cyfitter_cfg.c **** 
 135:.\Generated_Source\PSoC4/cyfitter_cfg.c **** /*******************************************************************************
 136:.\Generated_Source\PSoC4/cyfitter_cfg.c **** * Function Name: cfg_write_bytes32
 137:.\Generated_Source\PSoC4/cyfitter_cfg.c **** ********************************************************************************
 138:.\Generated_Source\PSoC4/cyfitter_cfg.c **** * Summary:
 139:.\Generated_Source\PSoC4/cyfitter_cfg.c **** *  This function is used for setting up the chip configuration areas that
 140:.\Generated_Source\PSoC4/cyfitter_cfg.c **** *  contain relatively sparse data.
 141:.\Generated_Source\PSoC4/cyfitter_cfg.c **** *
 142:.\Generated_Source\PSoC4/cyfitter_cfg.c **** * Parameters:
 143:.\Generated_Source\PSoC4/cyfitter_cfg.c **** *   void
 144:.\Generated_Source\PSoC4/cyfitter_cfg.c **** *
 145:.\Generated_Source\PSoC4/cyfitter_cfg.c **** * Return:
 146:.\Generated_Source\PSoC4/cyfitter_cfg.c **** *   void
 147:.\Generated_Source\PSoC4/cyfitter_cfg.c **** *
 148:.\Generated_Source\PSoC4/cyfitter_cfg.c **** *******************************************************************************/
 149:.\Generated_Source\PSoC4/cyfitter_cfg.c **** static void cfg_write_bytes32(const uint32 addr_table[], const cy_cfg_addrvalue_t data_table[]);
 150:.\Generated_Source\PSoC4/cyfitter_cfg.c **** static void cfg_write_bytes32(const uint32 addr_table[], const cy_cfg_addrvalue_t data_table[])
 151:.\Generated_Source\PSoC4/cyfitter_cfg.c **** {
  41              		.loc 1 151 0
  42              		.cfi_startproc
  43              	.LVL1:
  44 0000 F0B5     		push	{r4, r5, r6, r7, lr}
  45              		.cfi_def_cfa_offset 20
  46              		.cfi_offset 4, -20
  47              		.cfi_offset 5, -16
  48              		.cfi_offset 6, -12
  49              		.cfi_offset 7, -8
  50              		.cfi_offset 14, -4
  51              	.LVL2:
 152:.\Generated_Source\PSoC4/cyfitter_cfg.c **** 	/* For 32-bit little-endian architectures */
 153:.\Generated_Source\PSoC4/cyfitter_cfg.c **** 	uint32 i, j = 0u;
  52              		.loc 1 153 0
  53 0002 0025     		mov	r5, #0
 154:.\Generated_Source\PSoC4/cyfitter_cfg.c **** 	for (i = 0u; i < CY_CFG_BASE_ADDR_COUNT; i++)
  54              		.loc 1 154 0
  55 0004 0027     		mov	r7, #0
  56 0006 11E0     		b	.L4
  57              	.LVL3:
  58              	.L7:
  59              	.LBB2:
 155:.\Generated_Source\PSoC4/cyfitter_cfg.c **** 	{
 156:.\Generated_Source\PSoC4/cyfitter_cfg.c **** 		uint32 baseAddr = addr_table[i];
  60              		.loc 1 156 0
  61 0008 BB00     		lsl	r3, r7, #2
  62 000a C658     		ldr	r6, [r0, r3]
  63              	.LVL4:
 157:.\Generated_Source\PSoC4/cyfitter_cfg.c **** 		uint8 count = (uint8)baseAddr;
  64              		.loc 1 157 0
  65 000c F3B2     		uxtb	r3, r6
  66              	.LVL5:
 158:.\Generated_Source\PSoC4/cyfitter_cfg.c **** 		baseAddr &= 0xFFFFFF00u;
  67              		.loc 1 158 0
  68 000e FF22     		mov	r2, #255
  69 0010 9643     		bic	r6, r2
  70              	.LVL6:
ARM GAS  C:\Users\Kevin\AppData\Local\Temp\ccbQlqyF.s 			page 5


 159:.\Generated_Source\PSoC4/cyfitter_cfg.c **** 		while (count != 0u)
  71              		.loc 1 159 0
  72 0012 08E0     		b	.L5
  73              	.L6:
 160:.\Generated_Source\PSoC4/cyfitter_cfg.c **** 		{
 161:.\Generated_Source\PSoC4/cyfitter_cfg.c **** 			CY_SET_XTND_REG8((void CYFAR *)(baseAddr + data_table[j].offset), data_table[j].value);
  74              		.loc 1 161 0
  75 0014 6A00     		lsl	r2, r5, #1
  76 0016 8A18     		add	r2, r1, r2
  77 0018 1478     		ldrb	r4, [r2]
  78 001a A419     		add	r4, r4, r6
  79 001c 5278     		ldrb	r2, [r2, #1]
  80 001e 2270     		strb	r2, [r4]
 162:.\Generated_Source\PSoC4/cyfitter_cfg.c **** 			j++;
  81              		.loc 1 162 0
  82 0020 0135     		add	r5, r5, #1
  83              	.LVL7:
 163:.\Generated_Source\PSoC4/cyfitter_cfg.c **** 			count--;
  84              		.loc 1 163 0
  85 0022 013B     		sub	r3, r3, #1
  86              	.LVL8:
  87 0024 DBB2     		uxtb	r3, r3
  88              	.LVL9:
  89              	.L5:
 159:.\Generated_Source\PSoC4/cyfitter_cfg.c **** 		{
  90              		.loc 1 159 0
  91 0026 002B     		cmp	r3, #0
  92 0028 F4D1     		bne	.L6
  93              	.LBE2:
 154:.\Generated_Source\PSoC4/cyfitter_cfg.c **** 	{
  94              		.loc 1 154 0 discriminator 2
  95 002a 0137     		add	r7, r7, #1
  96              	.LVL10:
  97              	.L4:
 154:.\Generated_Source\PSoC4/cyfitter_cfg.c **** 	{
  98              		.loc 1 154 0 is_stmt 0 discriminator 1
  99 002c 072F     		cmp	r7, #7
 100 002e EBD9     		bls	.L7
 164:.\Generated_Source\PSoC4/cyfitter_cfg.c **** 		}
 165:.\Generated_Source\PSoC4/cyfitter_cfg.c **** 	}
 166:.\Generated_Source\PSoC4/cyfitter_cfg.c **** }
 101              		.loc 1 166 0 is_stmt 1
 102              		@ sp needed
 103              	.LVL11:
 104              	.LVL12:
 105 0030 F0BD     		pop	{r4, r5, r6, r7, pc}
 106              		.cfi_endproc
 107              	.LFE6:
 108              		.size	cfg_write_bytes32, .-cfg_write_bytes32
 109 0032 C046     		.section	.text.AnalogSetDefault,"ax",%progbits
 110              		.align	2
 111              		.code	16
 112              		.thumb_func
 113              		.type	AnalogSetDefault, %function
 114              	AnalogSetDefault:
 115              	.LFB8:
 167:.\Generated_Source\PSoC4/cyfitter_cfg.c **** 
ARM GAS  C:\Users\Kevin\AppData\Local\Temp\ccbQlqyF.s 			page 6


 168:.\Generated_Source\PSoC4/cyfitter_cfg.c **** 
 169:.\Generated_Source\PSoC4/cyfitter_cfg.c **** /*******************************************************************************
 170:.\Generated_Source\PSoC4/cyfitter_cfg.c **** * Function Name: ClockSetup
 171:.\Generated_Source\PSoC4/cyfitter_cfg.c **** ********************************************************************************
 172:.\Generated_Source\PSoC4/cyfitter_cfg.c **** *
 173:.\Generated_Source\PSoC4/cyfitter_cfg.c **** * Summary:
 174:.\Generated_Source\PSoC4/cyfitter_cfg.c **** *   Performs the initialization of all of the clocks in the device based on the
 175:.\Generated_Source\PSoC4/cyfitter_cfg.c **** *   settings in the Clock tab of the DWR.  This includes enabling the requested
 176:.\Generated_Source\PSoC4/cyfitter_cfg.c **** *   clocks and setting the necessary dividers to produce the desired frequency. 
 177:.\Generated_Source\PSoC4/cyfitter_cfg.c **** *
 178:.\Generated_Source\PSoC4/cyfitter_cfg.c **** * Parameters:
 179:.\Generated_Source\PSoC4/cyfitter_cfg.c **** *   void
 180:.\Generated_Source\PSoC4/cyfitter_cfg.c **** *
 181:.\Generated_Source\PSoC4/cyfitter_cfg.c **** * Return:
 182:.\Generated_Source\PSoC4/cyfitter_cfg.c **** *   void
 183:.\Generated_Source\PSoC4/cyfitter_cfg.c **** *
 184:.\Generated_Source\PSoC4/cyfitter_cfg.c **** *******************************************************************************/
 185:.\Generated_Source\PSoC4/cyfitter_cfg.c **** static void ClockSetup(void);
 186:.\Generated_Source\PSoC4/cyfitter_cfg.c **** CY_CFG_SECTION
 187:.\Generated_Source\PSoC4/cyfitter_cfg.c **** static void ClockSetup(void)
 188:.\Generated_Source\PSoC4/cyfitter_cfg.c **** {
 189:.\Generated_Source\PSoC4/cyfitter_cfg.c **** 	uint8 ecoStatus;
 190:.\Generated_Source\PSoC4/cyfitter_cfg.c **** 
 191:.\Generated_Source\PSoC4/cyfitter_cfg.c **** 	/* Set Flash Cycles based on max possible frequency in case a glitch occurs during ClockSetup(). *
 192:.\Generated_Source\PSoC4/cyfitter_cfg.c **** 	CY_SET_REG32((void CYXDATA *)(CYREG_CPUSS_FLASH_CTL), (0x0012u));
 193:.\Generated_Source\PSoC4/cyfitter_cfg.c **** 
 194:.\Generated_Source\PSoC4/cyfitter_cfg.c **** 	/* Start the WCO */
 195:.\Generated_Source\PSoC4/cyfitter_cfg.c **** 	CySysClkWcoStart();
 196:.\Generated_Source\PSoC4/cyfitter_cfg.c **** 	CyDelayCycles(12000000u); /* WCO may take up to 500ms to start */
 197:.\Generated_Source\PSoC4/cyfitter_cfg.c **** 	(void)CySysClkWcoSetPowerMode(CY_SYS_CLK_WCO_LPM);    /* Switch to the low power mode */
 198:.\Generated_Source\PSoC4/cyfitter_cfg.c **** 
 199:.\Generated_Source\PSoC4/cyfitter_cfg.c **** 	/* Setup and trim IMO based on desired frequency. */
 200:.\Generated_Source\PSoC4/cyfitter_cfg.c **** 	CySysClkWriteImoFreq(12u);
 201:.\Generated_Source\PSoC4/cyfitter_cfg.c **** 	/* CYDEV_CLK_ILO_CONFIG Starting address: CYDEV_CLK_ILO_CONFIG */
 202:.\Generated_Source\PSoC4/cyfitter_cfg.c **** 	CY_SET_XTND_REG32((void CYFAR *)(CYREG_CLK_ILO_CONFIG), 0x80000006u);
 203:.\Generated_Source\PSoC4/cyfitter_cfg.c **** 
 204:.\Generated_Source\PSoC4/cyfitter_cfg.c **** 	/* CYDEV_WDT_CONFIG Starting address: CYDEV_WDT_CONFIG */
 205:.\Generated_Source\PSoC4/cyfitter_cfg.c **** 	CY_SET_XTND_REG32((void CYFAR *)(CYREG_WDT_CONFIG), 0x40000000u);
 206:.\Generated_Source\PSoC4/cyfitter_cfg.c **** 
 207:.\Generated_Source\PSoC4/cyfitter_cfg.c **** 
 208:.\Generated_Source\PSoC4/cyfitter_cfg.c **** 	/* Enable fast start mode for XO */
 209:.\Generated_Source\PSoC4/cyfitter_cfg.c **** 	CY_SET_REG32((void*)CYREG_BLE_BLERD_BB_XO, CY_GET_REG32((void*)CYREG_BLE_BLERD_BB_XO) | (uint32)0x
 210:.\Generated_Source\PSoC4/cyfitter_cfg.c **** 	CY_SET_XTND_REG32((void CYFAR *)(CYREG_BLE_BLERD_BB_XO_CAPTRIM), 0x00003E2Du);
 211:.\Generated_Source\PSoC4/cyfitter_cfg.c **** 	/* Disable Crystal Stable Interrupt before enabling ECO */
 212:.\Generated_Source\PSoC4/cyfitter_cfg.c **** 	CY_SET_REG32((void*)CYREG_BLE_BLESS_LL_DSM_CTRL, CY_GET_REG32((void*)CYREG_BLE_BLESS_LL_DSM_CTRL) 
 213:.\Generated_Source\PSoC4/cyfitter_cfg.c **** 	/* Start the ECO and check status since it is needed for HFCLK */
 214:.\Generated_Source\PSoC4/cyfitter_cfg.c **** 	ecoStatus = CySysClkEcoStart(2000u);
 215:.\Generated_Source\PSoC4/cyfitter_cfg.c **** 	if (ecoStatus != CYRET_SUCCESS)
 216:.\Generated_Source\PSoC4/cyfitter_cfg.c **** 	{
 217:.\Generated_Source\PSoC4/cyfitter_cfg.c **** 		CyClockStartupError(CYCLOCKSTART_XTAL_ERROR);
 218:.\Generated_Source\PSoC4/cyfitter_cfg.c **** 	}
 219:.\Generated_Source\PSoC4/cyfitter_cfg.c **** 	CyDelayUs(1500u); /* Wait to stabalize */
 220:.\Generated_Source\PSoC4/cyfitter_cfg.c **** 
 221:.\Generated_Source\PSoC4/cyfitter_cfg.c **** 	/* Setup phase aligned clocks */
 222:.\Generated_Source\PSoC4/cyfitter_cfg.c **** 	CY_SET_REG32((void *)CYREG_PERI_DIV_16_CTL2, 0x00095F00u);
 223:.\Generated_Source\PSoC4/cyfitter_cfg.c **** 	CY_SET_REG32((void *)CYREG_PERI_DIV_CMD, 0x8000FF42u);
 224:.\Generated_Source\PSoC4/cyfitter_cfg.c **** 	CY_SET_REG32((void *)CYREG_PERI_DIV_16_CTL6, 0x005DBF00u);
ARM GAS  C:\Users\Kevin\AppData\Local\Temp\ccbQlqyF.s 			page 7


 225:.\Generated_Source\PSoC4/cyfitter_cfg.c **** 	CY_SET_REG32((void *)CYREG_PERI_DIV_CMD, 0x8000FF46u);
 226:.\Generated_Source\PSoC4/cyfitter_cfg.c **** 	CY_SET_REG32((void *)CYREG_PERI_DIV_16_CTL0, 0x00001700u);
 227:.\Generated_Source\PSoC4/cyfitter_cfg.c **** 	CY_SET_REG32((void *)CYREG_PERI_DIV_CMD, 0x8000FF40u);
 228:.\Generated_Source\PSoC4/cyfitter_cfg.c **** 	CY_SET_REG32((void *)CYREG_PERI_DIV_16_CTL1, 0x00095F00u);
 229:.\Generated_Source\PSoC4/cyfitter_cfg.c **** 	CY_SET_REG32((void *)CYREG_PERI_DIV_CMD, 0x8000FF41u);
 230:.\Generated_Source\PSoC4/cyfitter_cfg.c **** 	CY_SET_REG32((void *)CYREG_PERI_DIV_16_CTL5, 0x00095F00u);
 231:.\Generated_Source\PSoC4/cyfitter_cfg.c **** 	CY_SET_REG32((void *)CYREG_PERI_DIV_CMD, 0x8000FF45u);
 232:.\Generated_Source\PSoC4/cyfitter_cfg.c **** 	CY_SET_REG32((void *)CYREG_PERI_DIV_16_CTL4, 0x00095F00u);
 233:.\Generated_Source\PSoC4/cyfitter_cfg.c **** 	CY_SET_REG32((void *)CYREG_PERI_DIV_CMD, 0x8000FF44u);
 234:.\Generated_Source\PSoC4/cyfitter_cfg.c **** 	CY_SET_REG32((void *)CYREG_PERI_DIV_16_CTL3, 0x00095F00u);
 235:.\Generated_Source\PSoC4/cyfitter_cfg.c **** 	CY_SET_REG32((void *)CYREG_PERI_DIV_CMD, 0x8000FF43u);
 236:.\Generated_Source\PSoC4/cyfitter_cfg.c **** 
 237:.\Generated_Source\PSoC4/cyfitter_cfg.c **** 	/* CYDEV_CLK_SELECT Starting address: CYDEV_CLK_SELECT */
 238:.\Generated_Source\PSoC4/cyfitter_cfg.c **** 	CY_SET_XTND_REG32((void CYFAR *)(CYREG_CLK_SELECT), 0x00000002u);
 239:.\Generated_Source\PSoC4/cyfitter_cfg.c **** 
 240:.\Generated_Source\PSoC4/cyfitter_cfg.c **** 	/* CYDEV_CLK_IMO_CONFIG Starting address: CYDEV_CLK_IMO_CONFIG */
 241:.\Generated_Source\PSoC4/cyfitter_cfg.c **** 	CY_SET_XTND_REG32((void CYFAR *)(CYREG_CLK_IMO_CONFIG), 0x80000000u);
 242:.\Generated_Source\PSoC4/cyfitter_cfg.c **** 
 243:.\Generated_Source\PSoC4/cyfitter_cfg.c **** 	/* CYDEV_PERI_PCLK_CTL14 Starting address: CYDEV_PERI_PCLK_CTL14 */
 244:.\Generated_Source\PSoC4/cyfitter_cfg.c **** 	CY_SET_XTND_REG32((void CYFAR *)(CYREG_PERI_PCLK_CTL14), 0x00000042u);
 245:.\Generated_Source\PSoC4/cyfitter_cfg.c **** 
 246:.\Generated_Source\PSoC4/cyfitter_cfg.c **** 	/* CYDEV_PERI_PCLK_CTL13 Starting address: CYDEV_PERI_PCLK_CTL13 */
 247:.\Generated_Source\PSoC4/cyfitter_cfg.c **** 	CY_SET_XTND_REG32((void CYFAR *)(CYREG_PERI_PCLK_CTL13), 0x00000046u);
 248:.\Generated_Source\PSoC4/cyfitter_cfg.c **** 
 249:.\Generated_Source\PSoC4/cyfitter_cfg.c **** 	/* CYDEV_PERI_PCLK_CTL12 Starting address: CYDEV_PERI_PCLK_CTL12 */
 250:.\Generated_Source\PSoC4/cyfitter_cfg.c **** 	CY_SET_XTND_REG32((void CYFAR *)(CYREG_PERI_PCLK_CTL12), 0x00000040u);
 251:.\Generated_Source\PSoC4/cyfitter_cfg.c **** 
 252:.\Generated_Source\PSoC4/cyfitter_cfg.c **** 	/* CYDEV_PERI_PCLK_CTL10 Starting address: CYDEV_PERI_PCLK_CTL10 */
 253:.\Generated_Source\PSoC4/cyfitter_cfg.c **** 	CY_SET_XTND_REG32((void CYFAR *)(CYREG_PERI_PCLK_CTL10), 0x00000041u);
 254:.\Generated_Source\PSoC4/cyfitter_cfg.c **** 
 255:.\Generated_Source\PSoC4/cyfitter_cfg.c **** 	/* CYDEV_PERI_PCLK_CTL9 Starting address: CYDEV_PERI_PCLK_CTL9 */
 256:.\Generated_Source\PSoC4/cyfitter_cfg.c **** 	CY_SET_XTND_REG32((void CYFAR *)(CYREG_PERI_PCLK_CTL9), 0x00000045u);
 257:.\Generated_Source\PSoC4/cyfitter_cfg.c **** 
 258:.\Generated_Source\PSoC4/cyfitter_cfg.c **** 	/* CYDEV_PERI_PCLK_CTL8 Starting address: CYDEV_PERI_PCLK_CTL8 */
 259:.\Generated_Source\PSoC4/cyfitter_cfg.c **** 	CY_SET_XTND_REG32((void CYFAR *)(CYREG_PERI_PCLK_CTL8), 0x00000044u);
 260:.\Generated_Source\PSoC4/cyfitter_cfg.c **** 
 261:.\Generated_Source\PSoC4/cyfitter_cfg.c **** 	/* CYDEV_PERI_PCLK_CTL7 Starting address: CYDEV_PERI_PCLK_CTL7 */
 262:.\Generated_Source\PSoC4/cyfitter_cfg.c **** 	CY_SET_XTND_REG32((void CYFAR *)(CYREG_PERI_PCLK_CTL7), 0x00000043u);
 263:.\Generated_Source\PSoC4/cyfitter_cfg.c **** 
 264:.\Generated_Source\PSoC4/cyfitter_cfg.c **** 	(void)CyIntSetVector(8u, &CySysWdtIsr);
 265:.\Generated_Source\PSoC4/cyfitter_cfg.c **** 	CyIntEnable(8u);
 266:.\Generated_Source\PSoC4/cyfitter_cfg.c **** 	CY_SET_XTND_REG32((void CYFAR *)(CYREG_WDT_CONFIG), 0x40000000u);
 267:.\Generated_Source\PSoC4/cyfitter_cfg.c **** 	/* Set Flash Cycles based on newly configured 24.00MHz HFCLK. */
 268:.\Generated_Source\PSoC4/cyfitter_cfg.c **** 	CY_SET_REG32((void CYXDATA *)(CYREG_CPUSS_FLASH_CTL), (0x0011u));
 269:.\Generated_Source\PSoC4/cyfitter_cfg.c **** }
 270:.\Generated_Source\PSoC4/cyfitter_cfg.c **** 
 271:.\Generated_Source\PSoC4/cyfitter_cfg.c **** 
 272:.\Generated_Source\PSoC4/cyfitter_cfg.c **** /* Analog API Functions */
 273:.\Generated_Source\PSoC4/cyfitter_cfg.c **** 
 274:.\Generated_Source\PSoC4/cyfitter_cfg.c **** 
 275:.\Generated_Source\PSoC4/cyfitter_cfg.c **** /*******************************************************************************
 276:.\Generated_Source\PSoC4/cyfitter_cfg.c **** * Function Name: AnalogSetDefault
 277:.\Generated_Source\PSoC4/cyfitter_cfg.c **** ********************************************************************************
 278:.\Generated_Source\PSoC4/cyfitter_cfg.c **** *
 279:.\Generated_Source\PSoC4/cyfitter_cfg.c **** * Summary:
 280:.\Generated_Source\PSoC4/cyfitter_cfg.c **** *  Sets up the analog portions of the chip to default values based on chip
 281:.\Generated_Source\PSoC4/cyfitter_cfg.c **** *  configuration options from the project.
ARM GAS  C:\Users\Kevin\AppData\Local\Temp\ccbQlqyF.s 			page 8


 282:.\Generated_Source\PSoC4/cyfitter_cfg.c **** *
 283:.\Generated_Source\PSoC4/cyfitter_cfg.c **** * Parameters:
 284:.\Generated_Source\PSoC4/cyfitter_cfg.c **** *  void
 285:.\Generated_Source\PSoC4/cyfitter_cfg.c **** *
 286:.\Generated_Source\PSoC4/cyfitter_cfg.c **** * Return:
 287:.\Generated_Source\PSoC4/cyfitter_cfg.c **** *  void
 288:.\Generated_Source\PSoC4/cyfitter_cfg.c **** *
 289:.\Generated_Source\PSoC4/cyfitter_cfg.c **** *******************************************************************************/
 290:.\Generated_Source\PSoC4/cyfitter_cfg.c **** static void AnalogSetDefault(void);
 291:.\Generated_Source\PSoC4/cyfitter_cfg.c **** static void AnalogSetDefault(void)
 292:.\Generated_Source\PSoC4/cyfitter_cfg.c **** {
 116              		.loc 1 292 0
 117              		.cfi_startproc
 293:.\Generated_Source\PSoC4/cyfitter_cfg.c **** 	CY_SET_XTND_REG32((void CYFAR *)CYREG_CTBM0_DFT_CTRL, 0x00000003u);
 118              		.loc 1 293 0
 119 0000 0323     		mov	r3, #3
 120 0002 044A     		ldr	r2, .L9
 121 0004 1360     		str	r3, [r2]
 294:.\Generated_Source\PSoC4/cyfitter_cfg.c **** 	CY_SET_XTND_REG32((void CYFAR *)CYREG_CTBM1_DFT_CTRL, 0x00000003u);
 122              		.loc 1 294 0
 123 0006 044A     		ldr	r2, .L9+4
 124 0008 1360     		str	r3, [r2]
 295:.\Generated_Source\PSoC4/cyfitter_cfg.c **** 	CY_SET_XTND_REG32((void CYFAR *)CYREG_PASS_DSAB_DSAB_CTRL, 0x00000000u);
 125              		.loc 1 295 0
 126 000a 0022     		mov	r2, #0
 127 000c 034B     		ldr	r3, .L9+8
 128 000e 1A60     		str	r2, [r3]
 296:.\Generated_Source\PSoC4/cyfitter_cfg.c **** }
 129              		.loc 1 296 0
 130              		@ sp needed
 131 0010 7047     		bx	lr
 132              	.L10:
 133 0012 C046     		.align	2
 134              	.L9:
 135 0014 30003040 		.word	1076887600
 136 0018 30003140 		.word	1076953136
 137 001c 000E3F40 		.word	1077874176
 138              		.cfi_endproc
 139              	.LFE8:
 140              		.size	AnalogSetDefault, .-AnalogSetDefault
 141              		.section	.text.CYMEMZERO,"ax",%progbits
 142              		.align	2
 143              		.code	16
 144              		.thumb_func
 145              		.type	CYMEMZERO, %function
 146              	CYMEMZERO:
 147              	.LFB2:
  62:.\Generated_Source\PSoC4/cyfitter_cfg.c **** 	(void)memset(s, 0, n);
 148              		.loc 1 62 0
 149              		.cfi_startproc
 150              	.LVL13:
 151 0000 08B5     		push	{r3, lr}
 152              		.cfi_def_cfa_offset 8
 153              		.cfi_offset 3, -8
 154              		.cfi_offset 14, -4
 155 0002 0A1C     		mov	r2, r1
  63:.\Generated_Source\PSoC4/cyfitter_cfg.c **** }
ARM GAS  C:\Users\Kevin\AppData\Local\Temp\ccbQlqyF.s 			page 9


 156              		.loc 1 63 0
 157 0004 0021     		mov	r1, #0
 158              	.LVL14:
 159 0006 FFF7FEFF 		bl	memset
 160              	.LVL15:
  64:.\Generated_Source\PSoC4/cyfitter_cfg.c **** CY_CFG_UNUSED
 161              		.loc 1 64 0
 162              		@ sp needed
 163 000a 08BD     		pop	{r3, pc}
 164              		.cfi_endproc
 165              	.LFE2:
 166              		.size	CYMEMZERO, .-CYMEMZERO
 167              		.section	.psocinit,"ax",%progbits
 168              		.align	2
 169              		.code	16
 170              		.thumb_func
 171              		.type	ClockSetup, %function
 172              	ClockSetup:
 173              	.LFB7:
 188:.\Generated_Source\PSoC4/cyfitter_cfg.c **** 	uint8 ecoStatus;
 174              		.loc 1 188 0
 175              		.cfi_startproc
 176 0000 08B5     		push	{r3, lr}
 177              		.cfi_def_cfa_offset 8
 178              		.cfi_offset 3, -8
 179              		.cfi_offset 14, -4
 192:.\Generated_Source\PSoC4/cyfitter_cfg.c **** 
 180              		.loc 1 192 0
 181 0002 1222     		mov	r2, #18
 182 0004 3C4B     		ldr	r3, .L14
 183 0006 1A60     		str	r2, [r3]
 195:.\Generated_Source\PSoC4/cyfitter_cfg.c **** 	CyDelayCycles(12000000u); /* WCO may take up to 500ms to start */
 184              		.loc 1 195 0
 185 0008 FFF7FEFF 		bl	CySysClkWcoStart
 186              	.LVL16:
 196:.\Generated_Source\PSoC4/cyfitter_cfg.c **** 	(void)CySysClkWcoSetPowerMode(CY_SYS_CLK_WCO_LPM);    /* Switch to the low power mode */
 187              		.loc 1 196 0
 188 000c 3B48     		ldr	r0, .L14+4
 189 000e FFF7FEFF 		bl	CyDelayCycles
 190              	.LVL17:
 197:.\Generated_Source\PSoC4/cyfitter_cfg.c **** 
 191              		.loc 1 197 0
 192 0012 0120     		mov	r0, #1
 193 0014 FFF7FEFF 		bl	CySysClkWcoSetPowerMode
 194              	.LVL18:
 200:.\Generated_Source\PSoC4/cyfitter_cfg.c **** 	/* CYDEV_CLK_ILO_CONFIG Starting address: CYDEV_CLK_ILO_CONFIG */
 195              		.loc 1 200 0
 196 0018 0C20     		mov	r0, #12
 197 001a FFF7FEFF 		bl	CySysClkWriteImoFreq
 198              	.LVL19:
 202:.\Generated_Source\PSoC4/cyfitter_cfg.c **** 
 199              		.loc 1 202 0
 200 001e 384A     		ldr	r2, .L14+8
 201 0020 384B     		ldr	r3, .L14+12
 202 0022 1A60     		str	r2, [r3]
 205:.\Generated_Source\PSoC4/cyfitter_cfg.c **** 
 203              		.loc 1 205 0
ARM GAS  C:\Users\Kevin\AppData\Local\Temp\ccbQlqyF.s 			page 10


 204 0024 8022     		mov	r2, #128
 205 0026 D205     		lsl	r2, r2, #23
 206 0028 374B     		ldr	r3, .L14+16
 207 002a 1A60     		str	r2, [r3]
 209:.\Generated_Source\PSoC4/cyfitter_cfg.c **** 	CY_SET_XTND_REG32((void CYFAR *)(CYREG_BLE_BLERD_BB_XO_CAPTRIM), 0x00003E2Du);
 208              		.loc 1 209 0
 209 002c 374A     		ldr	r2, .L14+20
 210 002e 1168     		ldr	r1, [r2]
 211 0030 0223     		mov	r3, #2
 212 0032 0B43     		orr	r3, r1
 213 0034 1360     		str	r3, [r2]
 210:.\Generated_Source\PSoC4/cyfitter_cfg.c **** 	/* Disable Crystal Stable Interrupt before enabling ECO */
 214              		.loc 1 210 0
 215 0036 364A     		ldr	r2, .L14+24
 216 0038 364B     		ldr	r3, .L14+28
 217 003a 1A60     		str	r2, [r3]
 212:.\Generated_Source\PSoC4/cyfitter_cfg.c **** 	/* Start the ECO and check status since it is needed for HFCLK */
 218              		.loc 1 212 0
 219 003c 364A     		ldr	r2, .L14+32
 220 003e 1368     		ldr	r3, [r2]
 221 0040 0821     		mov	r1, #8
 222 0042 8B43     		bic	r3, r1
 223 0044 1360     		str	r3, [r2]
 214:.\Generated_Source\PSoC4/cyfitter_cfg.c **** 	if (ecoStatus != CYRET_SUCCESS)
 224              		.loc 1 214 0
 225 0046 FA20     		mov	r0, #250
 226 0048 C000     		lsl	r0, r0, #3
 227 004a FFF7FEFF 		bl	CySysClkEcoStart
 228              	.LVL20:
 229 004e C0B2     		uxtb	r0, r0
 230              	.LVL21:
 215:.\Generated_Source\PSoC4/cyfitter_cfg.c **** 	{
 231              		.loc 1 215 0
 232 0050 0028     		cmp	r0, #0
 233 0052 02D0     		beq	.L13
 217:.\Generated_Source\PSoC4/cyfitter_cfg.c **** 	}
 234              		.loc 1 217 0
 235 0054 0120     		mov	r0, #1
 236              	.LVL22:
 237 0056 FFF7FEFF 		bl	CyClockStartupError
 238              	.LVL23:
 239              	.L13:
 219:.\Generated_Source\PSoC4/cyfitter_cfg.c **** 
 240              		.loc 1 219 0
 241 005a 3048     		ldr	r0, .L14+36
 242              	.LVL24:
 243 005c FFF7FEFF 		bl	CyDelayUs
 244              	.LVL25:
 222:.\Generated_Source\PSoC4/cyfitter_cfg.c **** 	CY_SET_REG32((void *)CYREG_PERI_DIV_CMD, 0x8000FF42u);
 245              		.loc 1 222 0
 246 0060 2F4A     		ldr	r2, .L14+40
 247 0062 304B     		ldr	r3, .L14+44
 248 0064 1A60     		str	r2, [r3]
 223:.\Generated_Source\PSoC4/cyfitter_cfg.c **** 	CY_SET_REG32((void *)CYREG_PERI_DIV_16_CTL6, 0x005DBF00u);
 249              		.loc 1 223 0
 250 0066 304B     		ldr	r3, .L14+48
 251 0068 3049     		ldr	r1, .L14+52
ARM GAS  C:\Users\Kevin\AppData\Local\Temp\ccbQlqyF.s 			page 11


 252 006a 1960     		str	r1, [r3]
 224:.\Generated_Source\PSoC4/cyfitter_cfg.c **** 	CY_SET_REG32((void *)CYREG_PERI_DIV_CMD, 0x8000FF46u);
 253              		.loc 1 224 0
 254 006c 3048     		ldr	r0, .L14+56
 255 006e 3149     		ldr	r1, .L14+60
 256 0070 0860     		str	r0, [r1]
 225:.\Generated_Source\PSoC4/cyfitter_cfg.c **** 	CY_SET_REG32((void *)CYREG_PERI_DIV_16_CTL0, 0x00001700u);
 257              		.loc 1 225 0
 258 0072 3149     		ldr	r1, .L14+64
 259 0074 1960     		str	r1, [r3]
 226:.\Generated_Source\PSoC4/cyfitter_cfg.c **** 	CY_SET_REG32((void *)CYREG_PERI_DIV_CMD, 0x8000FF40u);
 260              		.loc 1 226 0
 261 0076 B820     		mov	r0, #184
 262 0078 4001     		lsl	r0, r0, #5
 263 007a 3049     		ldr	r1, .L14+68
 264 007c 0860     		str	r0, [r1]
 227:.\Generated_Source\PSoC4/cyfitter_cfg.c **** 	CY_SET_REG32((void *)CYREG_PERI_DIV_16_CTL1, 0x00095F00u);
 265              		.loc 1 227 0
 266 007e 3049     		ldr	r1, .L14+72
 267 0080 1960     		str	r1, [r3]
 228:.\Generated_Source\PSoC4/cyfitter_cfg.c **** 	CY_SET_REG32((void *)CYREG_PERI_DIV_CMD, 0x8000FF41u);
 268              		.loc 1 228 0
 269 0082 3049     		ldr	r1, .L14+76
 270 0084 0A60     		str	r2, [r1]
 229:.\Generated_Source\PSoC4/cyfitter_cfg.c **** 	CY_SET_REG32((void *)CYREG_PERI_DIV_16_CTL5, 0x00095F00u);
 271              		.loc 1 229 0
 272 0086 3049     		ldr	r1, .L14+80
 273 0088 1960     		str	r1, [r3]
 230:.\Generated_Source\PSoC4/cyfitter_cfg.c **** 	CY_SET_REG32((void *)CYREG_PERI_DIV_CMD, 0x8000FF45u);
 274              		.loc 1 230 0
 275 008a 3049     		ldr	r1, .L14+84
 276 008c 0A60     		str	r2, [r1]
 231:.\Generated_Source\PSoC4/cyfitter_cfg.c **** 	CY_SET_REG32((void *)CYREG_PERI_DIV_16_CTL4, 0x00095F00u);
 277              		.loc 1 231 0
 278 008e 3049     		ldr	r1, .L14+88
 279 0090 1960     		str	r1, [r3]
 232:.\Generated_Source\PSoC4/cyfitter_cfg.c **** 	CY_SET_REG32((void *)CYREG_PERI_DIV_CMD, 0x8000FF44u);
 280              		.loc 1 232 0
 281 0092 3049     		ldr	r1, .L14+92
 282 0094 0A60     		str	r2, [r1]
 233:.\Generated_Source\PSoC4/cyfitter_cfg.c **** 	CY_SET_REG32((void *)CYREG_PERI_DIV_16_CTL3, 0x00095F00u);
 283              		.loc 1 233 0
 284 0096 3049     		ldr	r1, .L14+96
 285 0098 1960     		str	r1, [r3]
 234:.\Generated_Source\PSoC4/cyfitter_cfg.c **** 	CY_SET_REG32((void *)CYREG_PERI_DIV_CMD, 0x8000FF43u);
 286              		.loc 1 234 0
 287 009a 3049     		ldr	r1, .L14+100
 288 009c 0A60     		str	r2, [r1]
 235:.\Generated_Source\PSoC4/cyfitter_cfg.c **** 
 289              		.loc 1 235 0
 290 009e 304A     		ldr	r2, .L14+104
 291 00a0 1A60     		str	r2, [r3]
 238:.\Generated_Source\PSoC4/cyfitter_cfg.c **** 
 292              		.loc 1 238 0
 293 00a2 0222     		mov	r2, #2
 294 00a4 2F4B     		ldr	r3, .L14+108
 295 00a6 1A60     		str	r2, [r3]
ARM GAS  C:\Users\Kevin\AppData\Local\Temp\ccbQlqyF.s 			page 12


 241:.\Generated_Source\PSoC4/cyfitter_cfg.c **** 
 296              		.loc 1 241 0
 297 00a8 8022     		mov	r2, #128
 298 00aa 1206     		lsl	r2, r2, #24
 299 00ac 2E4B     		ldr	r3, .L14+112
 300 00ae 1A60     		str	r2, [r3]
 244:.\Generated_Source\PSoC4/cyfitter_cfg.c **** 
 301              		.loc 1 244 0
 302 00b0 4222     		mov	r2, #66
 303 00b2 2E4B     		ldr	r3, .L14+116
 304 00b4 1A60     		str	r2, [r3]
 247:.\Generated_Source\PSoC4/cyfitter_cfg.c **** 
 305              		.loc 1 247 0
 306 00b6 0432     		add	r2, r2, #4
 307 00b8 2D4B     		ldr	r3, .L14+120
 308 00ba 1A60     		str	r2, [r3]
 250:.\Generated_Source\PSoC4/cyfitter_cfg.c **** 
 309              		.loc 1 250 0
 310 00bc 063A     		sub	r2, r2, #6
 311 00be 2D4B     		ldr	r3, .L14+124
 312 00c0 1A60     		str	r2, [r3]
 253:.\Generated_Source\PSoC4/cyfitter_cfg.c **** 
 313              		.loc 1 253 0
 314 00c2 0132     		add	r2, r2, #1
 315 00c4 2C4B     		ldr	r3, .L14+128
 316 00c6 1A60     		str	r2, [r3]
 256:.\Generated_Source\PSoC4/cyfitter_cfg.c **** 
 317              		.loc 1 256 0
 318 00c8 0432     		add	r2, r2, #4
 319 00ca 2C4B     		ldr	r3, .L14+132
 320 00cc 1A60     		str	r2, [r3]
 259:.\Generated_Source\PSoC4/cyfitter_cfg.c **** 
 321              		.loc 1 259 0
 322 00ce 013A     		sub	r2, r2, #1
 323 00d0 2B4B     		ldr	r3, .L14+136
 324 00d2 1A60     		str	r2, [r3]
 262:.\Generated_Source\PSoC4/cyfitter_cfg.c **** 
 325              		.loc 1 262 0
 326 00d4 013A     		sub	r2, r2, #1
 327 00d6 2B4B     		ldr	r3, .L14+140
 328 00d8 1A60     		str	r2, [r3]
 264:.\Generated_Source\PSoC4/cyfitter_cfg.c **** 	CyIntEnable(8u);
 329              		.loc 1 264 0
 330 00da 0820     		mov	r0, #8
 331 00dc 2A49     		ldr	r1, .L14+144
 332 00de FFF7FEFF 		bl	CyIntSetVector
 333              	.LVL26:
 265:.\Generated_Source\PSoC4/cyfitter_cfg.c **** 	CY_SET_XTND_REG32((void CYFAR *)(CYREG_WDT_CONFIG), 0x40000000u);
 334              		.loc 1 265 0
 335 00e2 0820     		mov	r0, #8
 336 00e4 FFF7FEFF 		bl	CyIntEnable
 337              	.LVL27:
 266:.\Generated_Source\PSoC4/cyfitter_cfg.c **** 	/* Set Flash Cycles based on newly configured 24.00MHz HFCLK. */
 338              		.loc 1 266 0
 339 00e8 8022     		mov	r2, #128
 340 00ea D205     		lsl	r2, r2, #23
 341 00ec 064B     		ldr	r3, .L14+16
ARM GAS  C:\Users\Kevin\AppData\Local\Temp\ccbQlqyF.s 			page 13


 342 00ee 1A60     		str	r2, [r3]
 268:.\Generated_Source\PSoC4/cyfitter_cfg.c **** }
 343              		.loc 1 268 0
 344 00f0 1122     		mov	r2, #17
 345 00f2 014B     		ldr	r3, .L14
 346 00f4 1A60     		str	r2, [r3]
 269:.\Generated_Source\PSoC4/cyfitter_cfg.c **** 
 347              		.loc 1 269 0
 348              		@ sp needed
 349 00f6 08BD     		pop	{r3, pc}
 350              	.L15:
 351              		.align	2
 352              	.L14:
 353 00f8 30001040 		.word	1074790448
 354 00fc 001BB700 		.word	12000000
 355 0100 06000080 		.word	-2147483642
 356 0104 04010B40 		.word	1074462980
 357 0108 0C020B40 		.word	1074463244
 358 010c 78002E40 		.word	1076756600
 359 0110 2D3E0000 		.word	15917
 360 0114 7C002E40 		.word	1076756604
 361 0118 6CF02E40 		.word	1076818028
 362 011c DC050000 		.word	1500
 363 0120 005F0900 		.word	614144
 364 0124 08030140 		.word	1073808136
 365 0128 00000140 		.word	1073807360
 366 012c 42FF0080 		.word	-2147418302
 367 0130 00BF5D00 		.word	6143744
 368 0134 18030140 		.word	1073808152
 369 0138 46FF0080 		.word	-2147418298
 370 013c 00030140 		.word	1073808128
 371 0140 40FF0080 		.word	-2147418304
 372 0144 04030140 		.word	1073808132
 373 0148 41FF0080 		.word	-2147418303
 374 014c 14030140 		.word	1073808148
 375 0150 45FF0080 		.word	-2147418299
 376 0154 10030140 		.word	1073808144
 377 0158 44FF0080 		.word	-2147418300
 378 015c 0C030140 		.word	1073808140
 379 0160 43FF0080 		.word	-2147418301
 380 0164 00010B40 		.word	1074462976
 381 0168 08010B40 		.word	1074462984
 382 016c 38010140 		.word	1073807672
 383 0170 34010140 		.word	1073807668
 384 0174 30010140 		.word	1073807664
 385 0178 28010140 		.word	1073807656
 386 017c 24010140 		.word	1073807652
 387 0180 20010140 		.word	1073807648
 388 0184 1C010140 		.word	1073807644
 389 0188 00000000 		.word	CySysWdtIsr
 390              		.cfi_endproc
 391              	.LFE7:
 392              		.size	ClockSetup, .-ClockSetup
 393              		.align	2
 394              		.global	cyfitter_cfg
 395              		.code	16
 396              		.thumb_func
ARM GAS  C:\Users\Kevin\AppData\Local\Temp\ccbQlqyF.s 			page 14


 397              		.type	cyfitter_cfg, %function
 398              	cyfitter_cfg:
 399              	.LFB9:
 297:.\Generated_Source\PSoC4/cyfitter_cfg.c **** 
 298:.\Generated_Source\PSoC4/cyfitter_cfg.c **** #define CY_AMUX_UNUSED CYREG_CM0_ROM_DWT
 299:.\Generated_Source\PSoC4/cyfitter_cfg.c **** 
 300:.\Generated_Source\PSoC4/cyfitter_cfg.c **** 
 301:.\Generated_Source\PSoC4/cyfitter_cfg.c **** /*******************************************************************************
 302:.\Generated_Source\PSoC4/cyfitter_cfg.c **** * Function Name: cyfitter_cfg
 303:.\Generated_Source\PSoC4/cyfitter_cfg.c **** ********************************************************************************
 304:.\Generated_Source\PSoC4/cyfitter_cfg.c **** * Summary:
 305:.\Generated_Source\PSoC4/cyfitter_cfg.c **** *  This function is called by the start-up code for the selected device. It
 306:.\Generated_Source\PSoC4/cyfitter_cfg.c **** *  performs all of the necessary device configuration based on the design
 307:.\Generated_Source\PSoC4/cyfitter_cfg.c **** *  settings.  This includes settings from the Design Wide Resources (DWR) such
 308:.\Generated_Source\PSoC4/cyfitter_cfg.c **** *  as Clocks and Pins as well as any component configuration that is necessary.
 309:.\Generated_Source\PSoC4/cyfitter_cfg.c **** *
 310:.\Generated_Source\PSoC4/cyfitter_cfg.c **** * Parameters:  
 311:.\Generated_Source\PSoC4/cyfitter_cfg.c **** *   void
 312:.\Generated_Source\PSoC4/cyfitter_cfg.c **** *
 313:.\Generated_Source\PSoC4/cyfitter_cfg.c **** * Return:
 314:.\Generated_Source\PSoC4/cyfitter_cfg.c **** *   void
 315:.\Generated_Source\PSoC4/cyfitter_cfg.c **** *
 316:.\Generated_Source\PSoC4/cyfitter_cfg.c **** *******************************************************************************/
 317:.\Generated_Source\PSoC4/cyfitter_cfg.c **** CY_CFG_SECTION
 318:.\Generated_Source\PSoC4/cyfitter_cfg.c **** void cyfitter_cfg(void)
 319:.\Generated_Source\PSoC4/cyfitter_cfg.c **** {
 400              		.loc 1 319 0
 401              		.cfi_startproc
 402 018c 10B5     		push	{r4, lr}
 403              		.cfi_def_cfa_offset 8
 404              		.cfi_offset 4, -8
 405              		.cfi_offset 14, -4
 320:.\Generated_Source\PSoC4/cyfitter_cfg.c **** 	/* Disable interrupts by default. Let user enable if/when they want. */
 321:.\Generated_Source\PSoC4/cyfitter_cfg.c **** 	CyGlobalIntDisable;
 406              		.loc 1 321 0
 407              	@ 321 ".\Generated_Source\PSoC4\cyfitter_cfg.c" 1
 408 018e 72B6     		CPSID   i
 409              	@ 0 "" 2
 322:.\Generated_Source\PSoC4/cyfitter_cfg.c **** 
 323:.\Generated_Source\PSoC4/cyfitter_cfg.c **** 	CY_SET_XTND_REG32((void CYFAR *)(CYREG_BLE_BLESS_LL_DSM_CTRL), 0x00000000u);
 410              		.loc 1 323 0
 411              		.code	16
 412 0190 0022     		mov	r2, #0
 413 0192 324B     		ldr	r3, .L19
 414 0194 1A60     		str	r2, [r3]
 415              	.LVL28:
 416              	.LBB3:
 324:.\Generated_Source\PSoC4/cyfitter_cfg.c **** 
 325:.\Generated_Source\PSoC4/cyfitter_cfg.c **** 	{
 326:.\Generated_Source\PSoC4/cyfitter_cfg.c **** 		static const uint32 CYCODE cy_cfg_addr_table[] = {
 327:.\Generated_Source\PSoC4/cyfitter_cfg.c **** 			0x400F0003u, /* Base address: 0x400F0000 Count: 3 */
 328:.\Generated_Source\PSoC4/cyfitter_cfg.c **** 			0x400F3046u, /* Base address: 0x400F3000 Count: 70 */
 329:.\Generated_Source\PSoC4/cyfitter_cfg.c **** 			0x400F3122u, /* Base address: 0x400F3100 Count: 34 */
 330:.\Generated_Source\PSoC4/cyfitter_cfg.c **** 			0x400F323Eu, /* Base address: 0x400F3200 Count: 62 */
 331:.\Generated_Source\PSoC4/cyfitter_cfg.c **** 			0x400F331Eu, /* Base address: 0x400F3300 Count: 30 */
 332:.\Generated_Source\PSoC4/cyfitter_cfg.c **** 			0x400F4202u, /* Base address: 0x400F4200 Count: 2 */
 333:.\Generated_Source\PSoC4/cyfitter_cfg.c **** 			0x400F4306u, /* Base address: 0x400F4300 Count: 6 */
ARM GAS  C:\Users\Kevin\AppData\Local\Temp\ccbQlqyF.s 			page 15


 334:.\Generated_Source\PSoC4/cyfitter_cfg.c **** 			0x400F6002u, /* Base address: 0x400F6000 Count: 2 */
 335:.\Generated_Source\PSoC4/cyfitter_cfg.c **** 		};
 336:.\Generated_Source\PSoC4/cyfitter_cfg.c **** 
 337:.\Generated_Source\PSoC4/cyfitter_cfg.c **** 		static const cy_cfg_addrvalue_t CYCODE cy_cfg_data_table[] = {
 338:.\Generated_Source\PSoC4/cyfitter_cfg.c **** 			{0x80u, 0x0Du},
 339:.\Generated_Source\PSoC4/cyfitter_cfg.c **** 			{0x81u, 0x0Du},
 340:.\Generated_Source\PSoC4/cyfitter_cfg.c **** 			{0x83u, 0x0Du},
 341:.\Generated_Source\PSoC4/cyfitter_cfg.c **** 			{0x12u, 0x01u},
 342:.\Generated_Source\PSoC4/cyfitter_cfg.c **** 			{0x1Au, 0x01u},
 343:.\Generated_Source\PSoC4/cyfitter_cfg.c **** 			{0x36u, 0x01u},
 344:.\Generated_Source\PSoC4/cyfitter_cfg.c **** 			{0x3Eu, 0x40u},
 345:.\Generated_Source\PSoC4/cyfitter_cfg.c **** 			{0x40u, 0x42u},
 346:.\Generated_Source\PSoC4/cyfitter_cfg.c **** 			{0x45u, 0xECu},
 347:.\Generated_Source\PSoC4/cyfitter_cfg.c **** 			{0x46u, 0x20u},
 348:.\Generated_Source\PSoC4/cyfitter_cfg.c **** 			{0x48u, 0x0Bu},
 349:.\Generated_Source\PSoC4/cyfitter_cfg.c **** 			{0x49u, 0xFFu},
 350:.\Generated_Source\PSoC4/cyfitter_cfg.c **** 			{0x4Au, 0xFFu},
 351:.\Generated_Source\PSoC4/cyfitter_cfg.c **** 			{0x4Bu, 0xFFu},
 352:.\Generated_Source\PSoC4/cyfitter_cfg.c **** 			{0x4Fu, 0x01u},
 353:.\Generated_Source\PSoC4/cyfitter_cfg.c **** 			{0x50u, 0x18u},
 354:.\Generated_Source\PSoC4/cyfitter_cfg.c **** 			{0x52u, 0x80u},
 355:.\Generated_Source\PSoC4/cyfitter_cfg.c **** 			{0x54u, 0x01u},
 356:.\Generated_Source\PSoC4/cyfitter_cfg.c **** 			{0x58u, 0x04u},
 357:.\Generated_Source\PSoC4/cyfitter_cfg.c **** 			{0x5Au, 0x04u},
 358:.\Generated_Source\PSoC4/cyfitter_cfg.c **** 			{0x5Bu, 0x04u},
 359:.\Generated_Source\PSoC4/cyfitter_cfg.c **** 			{0x5Du, 0x22u},
 360:.\Generated_Source\PSoC4/cyfitter_cfg.c **** 			{0x5Fu, 0x01u},
 361:.\Generated_Source\PSoC4/cyfitter_cfg.c **** 			{0x60u, 0x40u},
 362:.\Generated_Source\PSoC4/cyfitter_cfg.c **** 			{0x62u, 0x40u},
 363:.\Generated_Source\PSoC4/cyfitter_cfg.c **** 			{0x64u, 0x40u},
 364:.\Generated_Source\PSoC4/cyfitter_cfg.c **** 			{0x65u, 0x40u},
 365:.\Generated_Source\PSoC4/cyfitter_cfg.c **** 			{0x66u, 0x80u},
 366:.\Generated_Source\PSoC4/cyfitter_cfg.c **** 			{0x68u, 0x80u},
 367:.\Generated_Source\PSoC4/cyfitter_cfg.c **** 			{0x6Au, 0x80u},
 368:.\Generated_Source\PSoC4/cyfitter_cfg.c **** 			{0x6Cu, 0x80u},
 369:.\Generated_Source\PSoC4/cyfitter_cfg.c **** 			{0x6Eu, 0x80u},
 370:.\Generated_Source\PSoC4/cyfitter_cfg.c **** 			{0x8Fu, 0x01u},
 371:.\Generated_Source\PSoC4/cyfitter_cfg.c **** 			{0x94u, 0x01u},
 372:.\Generated_Source\PSoC4/cyfitter_cfg.c **** 			{0x9Au, 0x07u},
 373:.\Generated_Source\PSoC4/cyfitter_cfg.c **** 			{0x9Eu, 0x04u},
 374:.\Generated_Source\PSoC4/cyfitter_cfg.c **** 			{0xA3u, 0x01u},
 375:.\Generated_Source\PSoC4/cyfitter_cfg.c **** 			{0xAEu, 0x08u},
 376:.\Generated_Source\PSoC4/cyfitter_cfg.c **** 			{0xB0u, 0x04u},
 377:.\Generated_Source\PSoC4/cyfitter_cfg.c **** 			{0xB2u, 0x02u},
 378:.\Generated_Source\PSoC4/cyfitter_cfg.c **** 			{0xB4u, 0x01u},
 379:.\Generated_Source\PSoC4/cyfitter_cfg.c **** 			{0xB5u, 0x01u},
 380:.\Generated_Source\PSoC4/cyfitter_cfg.c **** 			{0xB6u, 0x08u},
 381:.\Generated_Source\PSoC4/cyfitter_cfg.c **** 			{0xBFu, 0x10u},
 382:.\Generated_Source\PSoC4/cyfitter_cfg.c **** 			{0xC0u, 0x10u},
 383:.\Generated_Source\PSoC4/cyfitter_cfg.c **** 			{0xC1u, 0x05u},
 384:.\Generated_Source\PSoC4/cyfitter_cfg.c **** 			{0xC5u, 0xD1u},
 385:.\Generated_Source\PSoC4/cyfitter_cfg.c **** 			{0xC6u, 0x02u},
 386:.\Generated_Source\PSoC4/cyfitter_cfg.c **** 			{0xC8u, 0x07u},
 387:.\Generated_Source\PSoC4/cyfitter_cfg.c **** 			{0xC9u, 0xFFu},
 388:.\Generated_Source\PSoC4/cyfitter_cfg.c **** 			{0xCAu, 0xFFu},
 389:.\Generated_Source\PSoC4/cyfitter_cfg.c **** 			{0xCBu, 0xFFu},
 390:.\Generated_Source\PSoC4/cyfitter_cfg.c **** 			{0xCDu, 0xA0u},
ARM GAS  C:\Users\Kevin\AppData\Local\Temp\ccbQlqyF.s 			page 16


 391:.\Generated_Source\PSoC4/cyfitter_cfg.c **** 			{0xCFu, 0x04u},
 392:.\Generated_Source\PSoC4/cyfitter_cfg.c **** 			{0xD0u, 0x18u},
 393:.\Generated_Source\PSoC4/cyfitter_cfg.c **** 			{0xD2u, 0x80u},
 394:.\Generated_Source\PSoC4/cyfitter_cfg.c **** 			{0xD4u, 0x05u},
 395:.\Generated_Source\PSoC4/cyfitter_cfg.c **** 			{0xD8u, 0x04u},
 396:.\Generated_Source\PSoC4/cyfitter_cfg.c **** 			{0xD9u, 0x04u},
 397:.\Generated_Source\PSoC4/cyfitter_cfg.c **** 			{0xDAu, 0x04u},
 398:.\Generated_Source\PSoC4/cyfitter_cfg.c **** 			{0xDBu, 0x04u},
 399:.\Generated_Source\PSoC4/cyfitter_cfg.c **** 			{0xDCu, 0x03u},
 400:.\Generated_Source\PSoC4/cyfitter_cfg.c **** 			{0xDDu, 0x33u},
 401:.\Generated_Source\PSoC4/cyfitter_cfg.c **** 			{0xDFu, 0x01u},
 402:.\Generated_Source\PSoC4/cyfitter_cfg.c **** 			{0xE0u, 0x40u},
 403:.\Generated_Source\PSoC4/cyfitter_cfg.c **** 			{0xE2u, 0xC0u},
 404:.\Generated_Source\PSoC4/cyfitter_cfg.c **** 			{0xE4u, 0x40u},
 405:.\Generated_Source\PSoC4/cyfitter_cfg.c **** 			{0xE5u, 0x40u},
 406:.\Generated_Source\PSoC4/cyfitter_cfg.c **** 			{0xE6u, 0xC0u},
 407:.\Generated_Source\PSoC4/cyfitter_cfg.c **** 			{0xE8u, 0xC0u},
 408:.\Generated_Source\PSoC4/cyfitter_cfg.c **** 			{0xEAu, 0xC0u},
 409:.\Generated_Source\PSoC4/cyfitter_cfg.c **** 			{0xECu, 0xC0u},
 410:.\Generated_Source\PSoC4/cyfitter_cfg.c **** 			{0xEEu, 0xC0u},
 411:.\Generated_Source\PSoC4/cyfitter_cfg.c **** 			{0x09u, 0x22u},
 412:.\Generated_Source\PSoC4/cyfitter_cfg.c **** 			{0x0Du, 0x80u},
 413:.\Generated_Source\PSoC4/cyfitter_cfg.c **** 			{0x0Eu, 0x10u},
 414:.\Generated_Source\PSoC4/cyfitter_cfg.c **** 			{0x0Fu, 0x08u},
 415:.\Generated_Source\PSoC4/cyfitter_cfg.c **** 			{0x17u, 0x80u},
 416:.\Generated_Source\PSoC4/cyfitter_cfg.c **** 			{0x19u, 0x40u},
 417:.\Generated_Source\PSoC4/cyfitter_cfg.c **** 			{0x1Cu, 0x80u},
 418:.\Generated_Source\PSoC4/cyfitter_cfg.c **** 			{0x1Du, 0x90u},
 419:.\Generated_Source\PSoC4/cyfitter_cfg.c **** 			{0x1Eu, 0x10u},
 420:.\Generated_Source\PSoC4/cyfitter_cfg.c **** 			{0x1Fu, 0x80u},
 421:.\Generated_Source\PSoC4/cyfitter_cfg.c **** 			{0x27u, 0x08u},
 422:.\Generated_Source\PSoC4/cyfitter_cfg.c **** 			{0x2Fu, 0x80u},
 423:.\Generated_Source\PSoC4/cyfitter_cfg.c **** 			{0x3Fu, 0x80u},
 424:.\Generated_Source\PSoC4/cyfitter_cfg.c **** 			{0x41u, 0x22u},
 425:.\Generated_Source\PSoC4/cyfitter_cfg.c **** 			{0x45u, 0x80u},
 426:.\Generated_Source\PSoC4/cyfitter_cfg.c **** 			{0x49u, 0x06u},
 427:.\Generated_Source\PSoC4/cyfitter_cfg.c **** 			{0x4Fu, 0x89u},
 428:.\Generated_Source\PSoC4/cyfitter_cfg.c **** 			{0x51u, 0x20u},
 429:.\Generated_Source\PSoC4/cyfitter_cfg.c **** 			{0x57u, 0x40u},
 430:.\Generated_Source\PSoC4/cyfitter_cfg.c **** 			{0x59u, 0x46u},
 431:.\Generated_Source\PSoC4/cyfitter_cfg.c **** 			{0x5Cu, 0x40u},
 432:.\Generated_Source\PSoC4/cyfitter_cfg.c **** 			{0x5Fu, 0x09u},
 433:.\Generated_Source\PSoC4/cyfitter_cfg.c **** 			{0x71u, 0x02u},
 434:.\Generated_Source\PSoC4/cyfitter_cfg.c **** 			{0x77u, 0x80u},
 435:.\Generated_Source\PSoC4/cyfitter_cfg.c **** 			{0x80u, 0x40u},
 436:.\Generated_Source\PSoC4/cyfitter_cfg.c **** 			{0x81u, 0x10u},
 437:.\Generated_Source\PSoC4/cyfitter_cfg.c **** 			{0x88u, 0x40u},
 438:.\Generated_Source\PSoC4/cyfitter_cfg.c **** 			{0xC2u, 0xEAu},
 439:.\Generated_Source\PSoC4/cyfitter_cfg.c **** 			{0xC4u, 0x80u},
 440:.\Generated_Source\PSoC4/cyfitter_cfg.c **** 			{0xCAu, 0x80u},
 441:.\Generated_Source\PSoC4/cyfitter_cfg.c **** 			{0xCEu, 0x10u},
 442:.\Generated_Source\PSoC4/cyfitter_cfg.c **** 			{0xD0u, 0x15u},
 443:.\Generated_Source\PSoC4/cyfitter_cfg.c **** 			{0xD2u, 0x10u},
 444:.\Generated_Source\PSoC4/cyfitter_cfg.c **** 			{0xD6u, 0xDBu},
 445:.\Generated_Source\PSoC4/cyfitter_cfg.c **** 			{0x40u, 0x60u},
 446:.\Generated_Source\PSoC4/cyfitter_cfg.c **** 			{0x41u, 0x05u},
 447:.\Generated_Source\PSoC4/cyfitter_cfg.c **** 			{0x49u, 0xFFu},
ARM GAS  C:\Users\Kevin\AppData\Local\Temp\ccbQlqyF.s 			page 17


 448:.\Generated_Source\PSoC4/cyfitter_cfg.c **** 			{0x4Au, 0xFFu},
 449:.\Generated_Source\PSoC4/cyfitter_cfg.c **** 			{0x4Bu, 0xFFu},
 450:.\Generated_Source\PSoC4/cyfitter_cfg.c **** 			{0x4Du, 0xA0u},
 451:.\Generated_Source\PSoC4/cyfitter_cfg.c **** 			{0x4Fu, 0x04u},
 452:.\Generated_Source\PSoC4/cyfitter_cfg.c **** 			{0x50u, 0x18u},
 453:.\Generated_Source\PSoC4/cyfitter_cfg.c **** 			{0x5Au, 0x04u},
 454:.\Generated_Source\PSoC4/cyfitter_cfg.c **** 			{0x5Du, 0x01u},
 455:.\Generated_Source\PSoC4/cyfitter_cfg.c **** 			{0x5Fu, 0x01u},
 456:.\Generated_Source\PSoC4/cyfitter_cfg.c **** 			{0x60u, 0x40u},
 457:.\Generated_Source\PSoC4/cyfitter_cfg.c **** 			{0x62u, 0xC0u},
 458:.\Generated_Source\PSoC4/cyfitter_cfg.c **** 			{0x64u, 0x40u},
 459:.\Generated_Source\PSoC4/cyfitter_cfg.c **** 			{0x65u, 0x40u},
 460:.\Generated_Source\PSoC4/cyfitter_cfg.c **** 			{0x66u, 0xC0u},
 461:.\Generated_Source\PSoC4/cyfitter_cfg.c **** 			{0x68u, 0xC0u},
 462:.\Generated_Source\PSoC4/cyfitter_cfg.c **** 			{0x6Au, 0xC0u},
 463:.\Generated_Source\PSoC4/cyfitter_cfg.c **** 			{0x6Cu, 0xC0u},
 464:.\Generated_Source\PSoC4/cyfitter_cfg.c **** 			{0x6Eu, 0xC0u},
 465:.\Generated_Source\PSoC4/cyfitter_cfg.c **** 			{0x86u, 0x06u},
 466:.\Generated_Source\PSoC4/cyfitter_cfg.c **** 			{0x8Eu, 0x02u},
 467:.\Generated_Source\PSoC4/cyfitter_cfg.c **** 			{0x92u, 0x01u},
 468:.\Generated_Source\PSoC4/cyfitter_cfg.c **** 			{0x9Bu, 0x01u},
 469:.\Generated_Source\PSoC4/cyfitter_cfg.c **** 			{0xA6u, 0x0Cu},
 470:.\Generated_Source\PSoC4/cyfitter_cfg.c **** 			{0xADu, 0x01u},
 471:.\Generated_Source\PSoC4/cyfitter_cfg.c **** 			{0xB0u, 0x08u},
 472:.\Generated_Source\PSoC4/cyfitter_cfg.c **** 			{0xB2u, 0x02u},
 473:.\Generated_Source\PSoC4/cyfitter_cfg.c **** 			{0xB4u, 0x01u},
 474:.\Generated_Source\PSoC4/cyfitter_cfg.c **** 			{0xB6u, 0x04u},
 475:.\Generated_Source\PSoC4/cyfitter_cfg.c **** 			{0xB7u, 0x01u},
 476:.\Generated_Source\PSoC4/cyfitter_cfg.c **** 			{0xBEu, 0x04u},
 477:.\Generated_Source\PSoC4/cyfitter_cfg.c **** 			{0xC0u, 0x20u},
 478:.\Generated_Source\PSoC4/cyfitter_cfg.c **** 			{0xC1u, 0x05u},
 479:.\Generated_Source\PSoC4/cyfitter_cfg.c **** 			{0xC5u, 0xD1u},
 480:.\Generated_Source\PSoC4/cyfitter_cfg.c **** 			{0xC7u, 0x20u},
 481:.\Generated_Source\PSoC4/cyfitter_cfg.c **** 			{0xC8u, 0x23u},
 482:.\Generated_Source\PSoC4/cyfitter_cfg.c **** 			{0xC9u, 0xFFu},
 483:.\Generated_Source\PSoC4/cyfitter_cfg.c **** 			{0xCAu, 0xFFu},
 484:.\Generated_Source\PSoC4/cyfitter_cfg.c **** 			{0xCBu, 0xFFu},
 485:.\Generated_Source\PSoC4/cyfitter_cfg.c **** 			{0xCDu, 0xAFu},
 486:.\Generated_Source\PSoC4/cyfitter_cfg.c **** 			{0xCEu, 0x0Fu},
 487:.\Generated_Source\PSoC4/cyfitter_cfg.c **** 			{0xCFu, 0x04u},
 488:.\Generated_Source\PSoC4/cyfitter_cfg.c **** 			{0xD0u, 0x18u},
 489:.\Generated_Source\PSoC4/cyfitter_cfg.c **** 			{0xD2u, 0x80u},
 490:.\Generated_Source\PSoC4/cyfitter_cfg.c **** 			{0xD4u, 0x05u},
 491:.\Generated_Source\PSoC4/cyfitter_cfg.c **** 			{0xD8u, 0x04u},
 492:.\Generated_Source\PSoC4/cyfitter_cfg.c **** 			{0xD9u, 0x04u},
 493:.\Generated_Source\PSoC4/cyfitter_cfg.c **** 			{0xDAu, 0x04u},
 494:.\Generated_Source\PSoC4/cyfitter_cfg.c **** 			{0xDBu, 0x04u},
 495:.\Generated_Source\PSoC4/cyfitter_cfg.c **** 			{0xDCu, 0x11u},
 496:.\Generated_Source\PSoC4/cyfitter_cfg.c **** 			{0xDDu, 0x11u},
 497:.\Generated_Source\PSoC4/cyfitter_cfg.c **** 			{0xDFu, 0x01u},
 498:.\Generated_Source\PSoC4/cyfitter_cfg.c **** 			{0xE0u, 0x40u},
 499:.\Generated_Source\PSoC4/cyfitter_cfg.c **** 			{0xE2u, 0xC0u},
 500:.\Generated_Source\PSoC4/cyfitter_cfg.c **** 			{0xE4u, 0x40u},
 501:.\Generated_Source\PSoC4/cyfitter_cfg.c **** 			{0xE5u, 0x40u},
 502:.\Generated_Source\PSoC4/cyfitter_cfg.c **** 			{0xE6u, 0xC0u},
 503:.\Generated_Source\PSoC4/cyfitter_cfg.c **** 			{0xE8u, 0xC0u},
 504:.\Generated_Source\PSoC4/cyfitter_cfg.c **** 			{0xEAu, 0xC0u},
ARM GAS  C:\Users\Kevin\AppData\Local\Temp\ccbQlqyF.s 			page 18


 505:.\Generated_Source\PSoC4/cyfitter_cfg.c **** 			{0xECu, 0xC0u},
 506:.\Generated_Source\PSoC4/cyfitter_cfg.c **** 			{0xEEu, 0xC0u},
 507:.\Generated_Source\PSoC4/cyfitter_cfg.c **** 			{0x00u, 0x04u},
 508:.\Generated_Source\PSoC4/cyfitter_cfg.c **** 			{0x02u, 0x02u},
 509:.\Generated_Source\PSoC4/cyfitter_cfg.c **** 			{0x09u, 0x02u},
 510:.\Generated_Source\PSoC4/cyfitter_cfg.c **** 			{0x10u, 0x20u},
 511:.\Generated_Source\PSoC4/cyfitter_cfg.c **** 			{0x18u, 0x04u},
 512:.\Generated_Source\PSoC4/cyfitter_cfg.c **** 			{0x19u, 0x08u},
 513:.\Generated_Source\PSoC4/cyfitter_cfg.c **** 			{0x1Bu, 0x91u},
 514:.\Generated_Source\PSoC4/cyfitter_cfg.c **** 			{0x22u, 0x40u},
 515:.\Generated_Source\PSoC4/cyfitter_cfg.c **** 			{0x2Bu, 0x01u},
 516:.\Generated_Source\PSoC4/cyfitter_cfg.c **** 			{0x30u, 0x20u},
 517:.\Generated_Source\PSoC4/cyfitter_cfg.c **** 			{0x40u, 0x04u},
 518:.\Generated_Source\PSoC4/cyfitter_cfg.c **** 			{0x48u, 0x20u},
 519:.\Generated_Source\PSoC4/cyfitter_cfg.c **** 			{0x49u, 0x01u},
 520:.\Generated_Source\PSoC4/cyfitter_cfg.c **** 			{0x4Au, 0x02u},
 521:.\Generated_Source\PSoC4/cyfitter_cfg.c **** 			{0x4Eu, 0x02u},
 522:.\Generated_Source\PSoC4/cyfitter_cfg.c **** 			{0x4Fu, 0x20u},
 523:.\Generated_Source\PSoC4/cyfitter_cfg.c **** 			{0x52u, 0x02u},
 524:.\Generated_Source\PSoC4/cyfitter_cfg.c **** 			{0x59u, 0x09u},
 525:.\Generated_Source\PSoC4/cyfitter_cfg.c **** 			{0x5Au, 0x80u},
 526:.\Generated_Source\PSoC4/cyfitter_cfg.c **** 			{0x71u, 0x02u},
 527:.\Generated_Source\PSoC4/cyfitter_cfg.c **** 			{0x83u, 0x80u},
 528:.\Generated_Source\PSoC4/cyfitter_cfg.c **** 			{0xC0u, 0x05u},
 529:.\Generated_Source\PSoC4/cyfitter_cfg.c **** 			{0xC2u, 0x08u},
 530:.\Generated_Source\PSoC4/cyfitter_cfg.c **** 			{0xC4u, 0x04u},
 531:.\Generated_Source\PSoC4/cyfitter_cfg.c **** 			{0xCAu, 0x08u},
 532:.\Generated_Source\PSoC4/cyfitter_cfg.c **** 			{0xCCu, 0x04u},
 533:.\Generated_Source\PSoC4/cyfitter_cfg.c **** 			{0xD0u, 0x04u},
 534:.\Generated_Source\PSoC4/cyfitter_cfg.c **** 			{0xD2u, 0x38u},
 535:.\Generated_Source\PSoC4/cyfitter_cfg.c **** 			{0xD6u, 0x0Bu},
 536:.\Generated_Source\PSoC4/cyfitter_cfg.c **** 			{0xE4u, 0x04u},
 537:.\Generated_Source\PSoC4/cyfitter_cfg.c **** 			{0x8Au, 0x02u},
 538:.\Generated_Source\PSoC4/cyfitter_cfg.c **** 			{0xE4u, 0x04u},
 539:.\Generated_Source\PSoC4/cyfitter_cfg.c **** 			{0x52u, 0x02u},
 540:.\Generated_Source\PSoC4/cyfitter_cfg.c **** 			{0x67u, 0x02u},
 541:.\Generated_Source\PSoC4/cyfitter_cfg.c **** 			{0x83u, 0x01u},
 542:.\Generated_Source\PSoC4/cyfitter_cfg.c **** 			{0xA2u, 0x02u},
 543:.\Generated_Source\PSoC4/cyfitter_cfg.c **** 			{0xD4u, 0x01u},
 544:.\Generated_Source\PSoC4/cyfitter_cfg.c **** 			{0xD6u, 0x01u},
 545:.\Generated_Source\PSoC4/cyfitter_cfg.c **** 			{0x10u, 0x0Eu},
 546:.\Generated_Source\PSoC4/cyfitter_cfg.c **** 			{0x11u, 0x01u},
 547:.\Generated_Source\PSoC4/cyfitter_cfg.c **** 		};
 548:.\Generated_Source\PSoC4/cyfitter_cfg.c **** 
 549:.\Generated_Source\PSoC4/cyfitter_cfg.c **** 
 550:.\Generated_Source\PSoC4/cyfitter_cfg.c **** 
 551:.\Generated_Source\PSoC4/cyfitter_cfg.c **** 		CYPACKED typedef struct {
 552:.\Generated_Source\PSoC4/cyfitter_cfg.c **** 			void CYFAR *address;
 553:.\Generated_Source\PSoC4/cyfitter_cfg.c **** 			uint16 size;
 554:.\Generated_Source\PSoC4/cyfitter_cfg.c **** 		} CYPACKED_ATTR cfg_memset_t;
 555:.\Generated_Source\PSoC4/cyfitter_cfg.c **** 
 556:.\Generated_Source\PSoC4/cyfitter_cfg.c **** 		static const cfg_memset_t CYCODE cfg_memset_list [] = {
 557:.\Generated_Source\PSoC4/cyfitter_cfg.c **** 			/* address, size */
 558:.\Generated_Source\PSoC4/cyfitter_cfg.c **** 			{(void CYFAR *)(CYDEV_UDB_P0_U0_BASE), 1024u},
 559:.\Generated_Source\PSoC4/cyfitter_cfg.c **** 			{(void CYFAR *)(CYDEV_UDB_DSI0_BASE), 1024u},
 560:.\Generated_Source\PSoC4/cyfitter_cfg.c **** 		};
 561:.\Generated_Source\PSoC4/cyfitter_cfg.c **** 
ARM GAS  C:\Users\Kevin\AppData\Local\Temp\ccbQlqyF.s 			page 19


 562:.\Generated_Source\PSoC4/cyfitter_cfg.c **** 		uint8 CYDATA i;
 563:.\Generated_Source\PSoC4/cyfitter_cfg.c **** 
 564:.\Generated_Source\PSoC4/cyfitter_cfg.c **** 		/* Zero out critical memory blocks before beginning configuration */
 565:.\Generated_Source\PSoC4/cyfitter_cfg.c **** 		for (i = 0u; i < (sizeof(cfg_memset_list)/sizeof(cfg_memset_list[0])); i++)
 417              		.loc 1 565 0
 418 0196 0024     		mov	r4, #0
 419 0198 10E0     		b	.L17
 420              	.LVL29:
 421              	.L18:
 422              	.LBB4:
 566:.\Generated_Source\PSoC4/cyfitter_cfg.c **** 		{
 567:.\Generated_Source\PSoC4/cyfitter_cfg.c **** 			const cfg_memset_t CYCODE * CYDATA ms = &cfg_memset_list[i];
 568:.\Generated_Source\PSoC4/cyfitter_cfg.c **** 			CYMEMZERO(ms->address, (size_t)(uint32)(ms->size));
 423              		.loc 1 568 0 discriminator 3
 424 019a 3148     		ldr	r0, .L19+4
 425 019c 6300     		lsl	r3, r4, #1
 426 019e 1A19     		add	r2, r3, r4
 427 01a0 5200     		lsl	r2, r2, #1
 428 01a2 8218     		add	r2, r0, r2
 429 01a4 9188     		ldrh	r1, [r2, #4]
 430 01a6 1B19     		add	r3, r3, r4
 431 01a8 5B00     		lsl	r3, r3, #1
 432 01aa 1A5A     		ldrh	r2, [r3, r0]
 433 01ac C318     		add	r3, r0, r3
 434 01ae 5888     		ldrh	r0, [r3, #2]
 435 01b0 0004     		lsl	r0, r0, #16
 436 01b2 1043     		orr	r0, r2
 437 01b4 FFF7FEFF 		bl	CYMEMZERO
 438              	.LVL30:
 439              	.LBE4:
 565:.\Generated_Source\PSoC4/cyfitter_cfg.c **** 		{
 440              		.loc 1 565 0 discriminator 3
 441 01b8 0134     		add	r4, r4, #1
 442              	.LVL31:
 443 01ba E4B2     		uxtb	r4, r4
 444              	.LVL32:
 445              	.L17:
 565:.\Generated_Source\PSoC4/cyfitter_cfg.c **** 		{
 446              		.loc 1 565 0 is_stmt 0 discriminator 1
 447 01bc 012C     		cmp	r4, #1
 448 01be ECD9     		bls	.L18
 569:.\Generated_Source\PSoC4/cyfitter_cfg.c **** 		}
 570:.\Generated_Source\PSoC4/cyfitter_cfg.c **** 
 571:.\Generated_Source\PSoC4/cyfitter_cfg.c **** 		cfg_write_bytes32(cy_cfg_addr_table, cy_cfg_data_table);
 449              		.loc 1 571 0 is_stmt 1
 450 01c0 2749     		ldr	r1, .L19+4
 451 01c2 081C     		mov	r0, r1
 452 01c4 0C30     		add	r0, r0, #12
 453 01c6 2C31     		add	r1, r1, #44
 454 01c8 FFF7FEFF 		bl	cfg_write_bytes32
 455              	.LVL33:
 572:.\Generated_Source\PSoC4/cyfitter_cfg.c **** 
 573:.\Generated_Source\PSoC4/cyfitter_cfg.c **** 		/* Perform normal device configuration. Order is not critical for these items. */
 574:.\Generated_Source\PSoC4/cyfitter_cfg.c **** 		CY_SET_XTND_REG16((void CYFAR *)(CYREG_UDB_BCTL0_DRV), 0x0E00u);
 456              		.loc 1 574 0
 457 01cc E022     		mov	r2, #224
 458 01ce 1201     		lsl	r2, r2, #4
ARM GAS  C:\Users\Kevin\AppData\Local\Temp\ccbQlqyF.s 			page 20


 459 01d0 244B     		ldr	r3, .L19+8
 460 01d2 1A80     		strh	r2, [r3]
 575:.\Generated_Source\PSoC4/cyfitter_cfg.c **** 		CY_SET_XTND_REG8((void CYFAR *)(CYREG_UDB_BCTL0_DRV + 0x2u), 0x01u);
 461              		.loc 1 575 0
 462 01d4 0122     		mov	r2, #1
 463 01d6 244B     		ldr	r3, .L19+12
 464 01d8 1A70     		strb	r2, [r3]
 576:.\Generated_Source\PSoC4/cyfitter_cfg.c **** 
 577:.\Generated_Source\PSoC4/cyfitter_cfg.c **** 		/* HSIOM Starting address: CYDEV_HSIOM_BASE */
 578:.\Generated_Source\PSoC4/cyfitter_cfg.c **** 		CY_SET_XTND_REG32((void CYFAR *)(CYDEV_HSIOM_BASE), 0xEE000000u);
 465              		.loc 1 578 0
 466 01da EE22     		mov	r2, #238
 467 01dc 1206     		lsl	r2, r2, #24
 468 01de 234B     		ldr	r3, .L19+16
 469 01e0 1A60     		str	r2, [r3]
 579:.\Generated_Source\PSoC4/cyfitter_cfg.c **** 		CY_SET_XTND_REG32((void CYFAR *)(CYREG_HSIOM_PORT_SEL3), 0x00030003u);
 470              		.loc 1 579 0
 471 01e2 234A     		ldr	r2, .L19+20
 472 01e4 234B     		ldr	r3, .L19+24
 473 01e6 1A60     		str	r2, [r3]
 580:.\Generated_Source\PSoC4/cyfitter_cfg.c **** 
 581:.\Generated_Source\PSoC4/cyfitter_cfg.c **** 		/* UDB_PA_0 Starting address: CYDEV_UDB_PA0_BASE */
 582:.\Generated_Source\PSoC4/cyfitter_cfg.c **** 		CY_SET_XTND_REG32((void CYFAR *)(CYDEV_UDB_PA0_BASE), 0x00990000u);
 474              		.loc 1 582 0
 475 01e8 9923     		mov	r3, #153
 476 01ea 1B04     		lsl	r3, r3, #16
 477 01ec 224A     		ldr	r2, .L19+28
 478 01ee 1360     		str	r3, [r2]
 583:.\Generated_Source\PSoC4/cyfitter_cfg.c **** 
 584:.\Generated_Source\PSoC4/cyfitter_cfg.c **** 		/* UDB_PA_2 Starting address: CYDEV_UDB_PA2_BASE */
 585:.\Generated_Source\PSoC4/cyfitter_cfg.c **** 		CY_SET_XTND_REG32((void CYFAR *)(CYDEV_UDB_PA2_BASE), 0x00990000u);
 479              		.loc 1 585 0
 480 01f0 224A     		ldr	r2, .L19+32
 481 01f2 1360     		str	r3, [r2]
 586:.\Generated_Source\PSoC4/cyfitter_cfg.c **** 
 587:.\Generated_Source\PSoC4/cyfitter_cfg.c **** 		/* UDB_PA_3 Starting address: CYDEV_UDB_PA3_BASE */
 588:.\Generated_Source\PSoC4/cyfitter_cfg.c **** 		CY_SET_XTND_REG32((void CYFAR *)(CYDEV_UDB_PA3_BASE), 0x00990000u);
 482              		.loc 1 588 0
 483 01f4 224A     		ldr	r2, .L19+36
 484 01f6 1360     		str	r3, [r2]
 589:.\Generated_Source\PSoC4/cyfitter_cfg.c **** 		CY_SET_XTND_REG32((void CYFAR *)(CYREG_UDB_PA3_CFG4), 0x08000000u);
 485              		.loc 1 589 0
 486 01f8 8022     		mov	r2, #128
 487 01fa 1205     		lsl	r2, r2, #20
 488 01fc 214B     		ldr	r3, .L19+40
 489 01fe 1A60     		str	r2, [r3]
 590:.\Generated_Source\PSoC4/cyfitter_cfg.c **** 		CY_SET_XTND_REG32((void CYFAR *)(CYREG_UDB_PA3_CFG8), 0x01020000u);
 490              		.loc 1 590 0
 491 0200 8122     		mov	r2, #129
 492 0202 5204     		lsl	r2, r2, #17
 493 0204 204B     		ldr	r3, .L19+44
 494 0206 1A60     		str	r2, [r3]
 591:.\Generated_Source\PSoC4/cyfitter_cfg.c **** 
 592:.\Generated_Source\PSoC4/cyfitter_cfg.c **** 		/* Enable digital routing */
 593:.\Generated_Source\PSoC4/cyfitter_cfg.c **** 		CY_SET_XTND_REG8((void *)CYREG_UDB_UDBIF_BANK_CTL, CY_GET_XTND_REG8((void *)CYREG_UDB_UDBIF_BANK_
 495              		.loc 1 593 0
 496 0208 204B     		ldr	r3, .L19+48
ARM GAS  C:\Users\Kevin\AppData\Local\Temp\ccbQlqyF.s 			page 21


 497 020a 1978     		ldrb	r1, [r3]
 498 020c 0222     		mov	r2, #2
 499 020e 0A43     		orr	r2, r1
 500 0210 1A70     		strb	r2, [r3]
 594:.\Generated_Source\PSoC4/cyfitter_cfg.c **** 
 595:.\Generated_Source\PSoC4/cyfitter_cfg.c **** 		/* Enable UDB array */
 596:.\Generated_Source\PSoC4/cyfitter_cfg.c **** 		CY_SET_XTND_REG8((void *)CYREG_UDB_UDBIF_WAIT_CFG, (uint8)((CY_GET_XTND_REG8((void *)CYREG_UDB_UD
 501              		.loc 1 596 0
 502 0212 1F48     		ldr	r0, .L19+52
 503 0214 0278     		ldrb	r2, [r0]
 504 0216 3C21     		mov	r1, #60
 505 0218 8A43     		bic	r2, r1
 506 021a 2839     		sub	r1, r1, #40
 507 021c 0A43     		orr	r2, r1
 508 021e 0270     		strb	r2, [r0]
 597:.\Generated_Source\PSoC4/cyfitter_cfg.c **** 		CY_SET_XTND_REG8((void *)CYREG_UDB_UDBIF_BANK_CTL, (uint8)(CY_GET_XTND_REG8((void *)CYREG_UDB_UDB
 509              		.loc 1 597 0
 510 0220 1978     		ldrb	r1, [r3]
 511 0222 1622     		mov	r2, #22
 512 0224 0A43     		orr	r2, r1
 513 0226 1A70     		strb	r2, [r3]
 514              	.LBE3:
 598:.\Generated_Source\PSoC4/cyfitter_cfg.c **** 	}
 599:.\Generated_Source\PSoC4/cyfitter_cfg.c **** 
 600:.\Generated_Source\PSoC4/cyfitter_cfg.c **** 	/* Perform second pass device configuration. These items must be configured in specific order afte
 601:.\Generated_Source\PSoC4/cyfitter_cfg.c **** 	/* IOPINS0_0 Starting address: CYDEV_GPIO_PRT0_BASE */
 602:.\Generated_Source\PSoC4/cyfitter_cfg.c **** 	CY_SET_XTND_REG32((void CYFAR *)(CYREG_GPIO_PRT0_PC), 0x00D80000u);
 515              		.loc 1 602 0
 516 0228 D822     		mov	r2, #216
 517 022a 1204     		lsl	r2, r2, #16
 518 022c 194B     		ldr	r3, .L19+56
 519 022e 1A60     		str	r2, [r3]
 603:.\Generated_Source\PSoC4/cyfitter_cfg.c **** 
 604:.\Generated_Source\PSoC4/cyfitter_cfg.c **** 	/* IOPINS0_2 Starting address: CYDEV_GPIO_PRT2_BASE */
 605:.\Generated_Source\PSoC4/cyfitter_cfg.c **** 	CY_SET_XTND_REG32((void CYFAR *)(CYDEV_GPIO_PRT2_BASE), 0x00000040u);
 520              		.loc 1 605 0
 521 0230 4022     		mov	r2, #64
 522 0232 194B     		ldr	r3, .L19+60
 523 0234 1A60     		str	r2, [r3]
 606:.\Generated_Source\PSoC4/cyfitter_cfg.c **** 	CY_SET_XTND_REG32((void CYFAR *)(CYREG_GPIO_PRT2_PC), 0x00180000u);
 524              		.loc 1 606 0
 525 0236 C022     		mov	r2, #192
 526 0238 5203     		lsl	r2, r2, #13
 527 023a 184B     		ldr	r3, .L19+64
 528 023c 1A60     		str	r2, [r3]
 607:.\Generated_Source\PSoC4/cyfitter_cfg.c **** 
 608:.\Generated_Source\PSoC4/cyfitter_cfg.c **** 	/* IOPINS0_3 Starting address: CYDEV_GPIO_PRT3_BASE */
 609:.\Generated_Source\PSoC4/cyfitter_cfg.c **** 	CY_SET_XTND_REG32((void CYFAR *)(CYDEV_GPIO_PRT3_BASE), 0x000000F1u);
 529              		.loc 1 609 0
 530 023e F122     		mov	r2, #241
 531 0240 174B     		ldr	r3, .L19+68
 532 0242 1A60     		str	r2, [r3]
 610:.\Generated_Source\PSoC4/cyfitter_cfg.c **** 	CY_SET_XTND_REG32((void CYFAR *)(CYREG_GPIO_PRT3_PC), 0x00D96006u);
 533              		.loc 1 610 0
 534 0244 174A     		ldr	r2, .L19+72
 535 0246 184B     		ldr	r3, .L19+76
 536 0248 1A60     		str	r2, [r3]
ARM GAS  C:\Users\Kevin\AppData\Local\Temp\ccbQlqyF.s 			page 22


 611:.\Generated_Source\PSoC4/cyfitter_cfg.c **** 	CY_SET_XTND_REG32((void CYFAR *)(CYREG_GPIO_PRT3_INTR_CFG), 0x00000C00u);
 537              		.loc 1 611 0
 538 024a C022     		mov	r2, #192
 539 024c 1201     		lsl	r2, r2, #4
 540 024e 174B     		ldr	r3, .L19+80
 541 0250 1A60     		str	r2, [r3]
 612:.\Generated_Source\PSoC4/cyfitter_cfg.c **** 
 613:.\Generated_Source\PSoC4/cyfitter_cfg.c **** 	/* Setup clocks based on selections from Clock DWR */
 614:.\Generated_Source\PSoC4/cyfitter_cfg.c **** 	ClockSetup();
 542              		.loc 1 614 0
 543 0252 FFF7D5FE 		bl	ClockSetup
 544              	.LVL34:
 615:.\Generated_Source\PSoC4/cyfitter_cfg.c **** 
 616:.\Generated_Source\PSoC4/cyfitter_cfg.c **** 	/* Perform basic analog initialization to defaults */
 617:.\Generated_Source\PSoC4/cyfitter_cfg.c **** 	AnalogSetDefault();
 545              		.loc 1 617 0
 546 0256 FFF7FEFF 		bl	AnalogSetDefault
 547              	.LVL35:
 618:.\Generated_Source\PSoC4/cyfitter_cfg.c **** 
 619:.\Generated_Source\PSoC4/cyfitter_cfg.c **** }
 548              		.loc 1 619 0
 549              		@ sp needed
 550              	.LVL36:
 551 025a 10BD     		pop	{r4, pc}
 552              	.L20:
 553              		.align	2
 554              	.L19:
 555 025c 6CF02E40 		.word	1076818028
 556 0260 00000000 		.word	.LANCHOR0
 557 0264 00600F40 		.word	1074749440
 558 0268 02600F40 		.word	1074749442
 559 026c 00000240 		.word	1073872896
 560 0270 03000300 		.word	196611
 561 0274 00030240 		.word	1073873664
 562 0278 00500F40 		.word	1074745344
 563 027c 20500F40 		.word	1074745376
 564 0280 30500F40 		.word	1074745392
 565 0284 34500F40 		.word	1074745396
 566 0288 38500F40 		.word	1074745400
 567 028c 00700F40 		.word	1074753536
 568 0290 01700F40 		.word	1074753537
 569 0294 08000440 		.word	1074003976
 570 0298 00020440 		.word	1074004480
 571 029c 08020440 		.word	1074004488
 572 02a0 00030440 		.word	1074004736
 573 02a4 0660D900 		.word	14245894
 574 02a8 08030440 		.word	1074004744
 575 02ac 0C030440 		.word	1074004748
 576              		.cfi_endproc
 577              	.LFE9:
 578              		.size	cyfitter_cfg, .-cyfitter_cfg
 579              		.section	.rodata
 580              		.align	2
 581              		.set	.LANCHOR0,. + 0
 582              		.type	cfg_memset_list.4772, %object
 583              		.size	cfg_memset_list.4772, 12
 584              	cfg_memset_list.4772:
ARM GAS  C:\Users\Kevin\AppData\Local\Temp\ccbQlqyF.s 			page 23


 585 0000 00300F40 		.word	1074737152
 586 0004 0004     		.short	1024
 587 0006 00400F40 		.4byte	1074741248
 588 000a 0004     		.short	1024
 589              		.type	cy_cfg_addr_table.4766, %object
 590              		.size	cy_cfg_addr_table.4766, 32
 591              	cy_cfg_addr_table.4766:
 592 000c 03000F40 		.word	1074724867
 593 0010 46300F40 		.word	1074737222
 594 0014 22310F40 		.word	1074737442
 595 0018 3E320F40 		.word	1074737726
 596 001c 1E330F40 		.word	1074737950
 597 0020 02420F40 		.word	1074741762
 598 0024 06430F40 		.word	1074742022
 599 0028 02600F40 		.word	1074749442
 600              		.type	cy_cfg_data_table.4767, %object
 601              		.size	cy_cfg_data_table.4767, 418
 602              	cy_cfg_data_table.4767:
 603 002c 80       		.byte	-128
 604 002d 0D       		.byte	13
 605 002e 81       		.byte	-127
 606 002f 0D       		.byte	13
 607 0030 83       		.byte	-125
 608 0031 0D       		.byte	13
 609 0032 12       		.byte	18
 610 0033 01       		.byte	1
 611 0034 1A       		.byte	26
 612 0035 01       		.byte	1
 613 0036 36       		.byte	54
 614 0037 01       		.byte	1
 615 0038 3E       		.byte	62
 616 0039 40       		.byte	64
 617 003a 40       		.byte	64
 618 003b 42       		.byte	66
 619 003c 45       		.byte	69
 620 003d EC       		.byte	-20
 621 003e 46       		.byte	70
 622 003f 20       		.byte	32
 623 0040 48       		.byte	72
 624 0041 0B       		.byte	11
 625 0042 49       		.byte	73
 626 0043 FF       		.byte	-1
 627 0044 4A       		.byte	74
 628 0045 FF       		.byte	-1
 629 0046 4B       		.byte	75
 630 0047 FF       		.byte	-1
 631 0048 4F       		.byte	79
 632 0049 01       		.byte	1
 633 004a 50       		.byte	80
 634 004b 18       		.byte	24
 635 004c 52       		.byte	82
 636 004d 80       		.byte	-128
 637 004e 54       		.byte	84
 638 004f 01       		.byte	1
 639 0050 58       		.byte	88
 640 0051 04       		.byte	4
 641 0052 5A       		.byte	90
ARM GAS  C:\Users\Kevin\AppData\Local\Temp\ccbQlqyF.s 			page 24


 642 0053 04       		.byte	4
 643 0054 5B       		.byte	91
 644 0055 04       		.byte	4
 645 0056 5D       		.byte	93
 646 0057 22       		.byte	34
 647 0058 5F       		.byte	95
 648 0059 01       		.byte	1
 649 005a 60       		.byte	96
 650 005b 40       		.byte	64
 651 005c 62       		.byte	98
 652 005d 40       		.byte	64
 653 005e 64       		.byte	100
 654 005f 40       		.byte	64
 655 0060 65       		.byte	101
 656 0061 40       		.byte	64
 657 0062 66       		.byte	102
 658 0063 80       		.byte	-128
 659 0064 68       		.byte	104
 660 0065 80       		.byte	-128
 661 0066 6A       		.byte	106
 662 0067 80       		.byte	-128
 663 0068 6C       		.byte	108
 664 0069 80       		.byte	-128
 665 006a 6E       		.byte	110
 666 006b 80       		.byte	-128
 667 006c 8F       		.byte	-113
 668 006d 01       		.byte	1
 669 006e 94       		.byte	-108
 670 006f 01       		.byte	1
 671 0070 9A       		.byte	-102
 672 0071 07       		.byte	7
 673 0072 9E       		.byte	-98
 674 0073 04       		.byte	4
 675 0074 A3       		.byte	-93
 676 0075 01       		.byte	1
 677 0076 AE       		.byte	-82
 678 0077 08       		.byte	8
 679 0078 B0       		.byte	-80
 680 0079 04       		.byte	4
 681 007a B2       		.byte	-78
 682 007b 02       		.byte	2
 683 007c B4       		.byte	-76
 684 007d 01       		.byte	1
 685 007e B5       		.byte	-75
 686 007f 01       		.byte	1
 687 0080 B6       		.byte	-74
 688 0081 08       		.byte	8
 689 0082 BF       		.byte	-65
 690 0083 10       		.byte	16
 691 0084 C0       		.byte	-64
 692 0085 10       		.byte	16
 693 0086 C1       		.byte	-63
 694 0087 05       		.byte	5
 695 0088 C5       		.byte	-59
 696 0089 D1       		.byte	-47
 697 008a C6       		.byte	-58
 698 008b 02       		.byte	2
ARM GAS  C:\Users\Kevin\AppData\Local\Temp\ccbQlqyF.s 			page 25


 699 008c C8       		.byte	-56
 700 008d 07       		.byte	7
 701 008e C9       		.byte	-55
 702 008f FF       		.byte	-1
 703 0090 CA       		.byte	-54
 704 0091 FF       		.byte	-1
 705 0092 CB       		.byte	-53
 706 0093 FF       		.byte	-1
 707 0094 CD       		.byte	-51
 708 0095 A0       		.byte	-96
 709 0096 CF       		.byte	-49
 710 0097 04       		.byte	4
 711 0098 D0       		.byte	-48
 712 0099 18       		.byte	24
 713 009a D2       		.byte	-46
 714 009b 80       		.byte	-128
 715 009c D4       		.byte	-44
 716 009d 05       		.byte	5
 717 009e D8       		.byte	-40
 718 009f 04       		.byte	4
 719 00a0 D9       		.byte	-39
 720 00a1 04       		.byte	4
 721 00a2 DA       		.byte	-38
 722 00a3 04       		.byte	4
 723 00a4 DB       		.byte	-37
 724 00a5 04       		.byte	4
 725 00a6 DC       		.byte	-36
 726 00a7 03       		.byte	3
 727 00a8 DD       		.byte	-35
 728 00a9 33       		.byte	51
 729 00aa DF       		.byte	-33
 730 00ab 01       		.byte	1
 731 00ac E0       		.byte	-32
 732 00ad 40       		.byte	64
 733 00ae E2       		.byte	-30
 734 00af C0       		.byte	-64
 735 00b0 E4       		.byte	-28
 736 00b1 40       		.byte	64
 737 00b2 E5       		.byte	-27
 738 00b3 40       		.byte	64
 739 00b4 E6       		.byte	-26
 740 00b5 C0       		.byte	-64
 741 00b6 E8       		.byte	-24
 742 00b7 C0       		.byte	-64
 743 00b8 EA       		.byte	-22
 744 00b9 C0       		.byte	-64
 745 00ba EC       		.byte	-20
 746 00bb C0       		.byte	-64
 747 00bc EE       		.byte	-18
 748 00bd C0       		.byte	-64
 749 00be 09       		.byte	9
 750 00bf 22       		.byte	34
 751 00c0 0D       		.byte	13
 752 00c1 80       		.byte	-128
 753 00c2 0E       		.byte	14
 754 00c3 10       		.byte	16
 755 00c4 0F       		.byte	15
ARM GAS  C:\Users\Kevin\AppData\Local\Temp\ccbQlqyF.s 			page 26


 756 00c5 08       		.byte	8
 757 00c6 17       		.byte	23
 758 00c7 80       		.byte	-128
 759 00c8 19       		.byte	25
 760 00c9 40       		.byte	64
 761 00ca 1C       		.byte	28
 762 00cb 80       		.byte	-128
 763 00cc 1D       		.byte	29
 764 00cd 90       		.byte	-112
 765 00ce 1E       		.byte	30
 766 00cf 10       		.byte	16
 767 00d0 1F       		.byte	31
 768 00d1 80       		.byte	-128
 769 00d2 27       		.byte	39
 770 00d3 08       		.byte	8
 771 00d4 2F       		.byte	47
 772 00d5 80       		.byte	-128
 773 00d6 3F       		.byte	63
 774 00d7 80       		.byte	-128
 775 00d8 41       		.byte	65
 776 00d9 22       		.byte	34
 777 00da 45       		.byte	69
 778 00db 80       		.byte	-128
 779 00dc 49       		.byte	73
 780 00dd 06       		.byte	6
 781 00de 4F       		.byte	79
 782 00df 89       		.byte	-119
 783 00e0 51       		.byte	81
 784 00e1 20       		.byte	32
 785 00e2 57       		.byte	87
 786 00e3 40       		.byte	64
 787 00e4 59       		.byte	89
 788 00e5 46       		.byte	70
 789 00e6 5C       		.byte	92
 790 00e7 40       		.byte	64
 791 00e8 5F       		.byte	95
 792 00e9 09       		.byte	9
 793 00ea 71       		.byte	113
 794 00eb 02       		.byte	2
 795 00ec 77       		.byte	119
 796 00ed 80       		.byte	-128
 797 00ee 80       		.byte	-128
 798 00ef 40       		.byte	64
 799 00f0 81       		.byte	-127
 800 00f1 10       		.byte	16
 801 00f2 88       		.byte	-120
 802 00f3 40       		.byte	64
 803 00f4 C2       		.byte	-62
 804 00f5 EA       		.byte	-22
 805 00f6 C4       		.byte	-60
 806 00f7 80       		.byte	-128
 807 00f8 CA       		.byte	-54
 808 00f9 80       		.byte	-128
 809 00fa CE       		.byte	-50
 810 00fb 10       		.byte	16
 811 00fc D0       		.byte	-48
 812 00fd 15       		.byte	21
ARM GAS  C:\Users\Kevin\AppData\Local\Temp\ccbQlqyF.s 			page 27


 813 00fe D2       		.byte	-46
 814 00ff 10       		.byte	16
 815 0100 D6       		.byte	-42
 816 0101 DB       		.byte	-37
 817 0102 40       		.byte	64
 818 0103 60       		.byte	96
 819 0104 41       		.byte	65
 820 0105 05       		.byte	5
 821 0106 49       		.byte	73
 822 0107 FF       		.byte	-1
 823 0108 4A       		.byte	74
 824 0109 FF       		.byte	-1
 825 010a 4B       		.byte	75
 826 010b FF       		.byte	-1
 827 010c 4D       		.byte	77
 828 010d A0       		.byte	-96
 829 010e 4F       		.byte	79
 830 010f 04       		.byte	4
 831 0110 50       		.byte	80
 832 0111 18       		.byte	24
 833 0112 5A       		.byte	90
 834 0113 04       		.byte	4
 835 0114 5D       		.byte	93
 836 0115 01       		.byte	1
 837 0116 5F       		.byte	95
 838 0117 01       		.byte	1
 839 0118 60       		.byte	96
 840 0119 40       		.byte	64
 841 011a 62       		.byte	98
 842 011b C0       		.byte	-64
 843 011c 64       		.byte	100
 844 011d 40       		.byte	64
 845 011e 65       		.byte	101
 846 011f 40       		.byte	64
 847 0120 66       		.byte	102
 848 0121 C0       		.byte	-64
 849 0122 68       		.byte	104
 850 0123 C0       		.byte	-64
 851 0124 6A       		.byte	106
 852 0125 C0       		.byte	-64
 853 0126 6C       		.byte	108
 854 0127 C0       		.byte	-64
 855 0128 6E       		.byte	110
 856 0129 C0       		.byte	-64
 857 012a 86       		.byte	-122
 858 012b 06       		.byte	6
 859 012c 8E       		.byte	-114
 860 012d 02       		.byte	2
 861 012e 92       		.byte	-110
 862 012f 01       		.byte	1
 863 0130 9B       		.byte	-101
 864 0131 01       		.byte	1
 865 0132 A6       		.byte	-90
 866 0133 0C       		.byte	12
 867 0134 AD       		.byte	-83
 868 0135 01       		.byte	1
 869 0136 B0       		.byte	-80
ARM GAS  C:\Users\Kevin\AppData\Local\Temp\ccbQlqyF.s 			page 28


 870 0137 08       		.byte	8
 871 0138 B2       		.byte	-78
 872 0139 02       		.byte	2
 873 013a B4       		.byte	-76
 874 013b 01       		.byte	1
 875 013c B6       		.byte	-74
 876 013d 04       		.byte	4
 877 013e B7       		.byte	-73
 878 013f 01       		.byte	1
 879 0140 BE       		.byte	-66
 880 0141 04       		.byte	4
 881 0142 C0       		.byte	-64
 882 0143 20       		.byte	32
 883 0144 C1       		.byte	-63
 884 0145 05       		.byte	5
 885 0146 C5       		.byte	-59
 886 0147 D1       		.byte	-47
 887 0148 C7       		.byte	-57
 888 0149 20       		.byte	32
 889 014a C8       		.byte	-56
 890 014b 23       		.byte	35
 891 014c C9       		.byte	-55
 892 014d FF       		.byte	-1
 893 014e CA       		.byte	-54
 894 014f FF       		.byte	-1
 895 0150 CB       		.byte	-53
 896 0151 FF       		.byte	-1
 897 0152 CD       		.byte	-51
 898 0153 AF       		.byte	-81
 899 0154 CE       		.byte	-50
 900 0155 0F       		.byte	15
 901 0156 CF       		.byte	-49
 902 0157 04       		.byte	4
 903 0158 D0       		.byte	-48
 904 0159 18       		.byte	24
 905 015a D2       		.byte	-46
 906 015b 80       		.byte	-128
 907 015c D4       		.byte	-44
 908 015d 05       		.byte	5
 909 015e D8       		.byte	-40
 910 015f 04       		.byte	4
 911 0160 D9       		.byte	-39
 912 0161 04       		.byte	4
 913 0162 DA       		.byte	-38
 914 0163 04       		.byte	4
 915 0164 DB       		.byte	-37
 916 0165 04       		.byte	4
 917 0166 DC       		.byte	-36
 918 0167 11       		.byte	17
 919 0168 DD       		.byte	-35
 920 0169 11       		.byte	17
 921 016a DF       		.byte	-33
 922 016b 01       		.byte	1
 923 016c E0       		.byte	-32
 924 016d 40       		.byte	64
 925 016e E2       		.byte	-30
 926 016f C0       		.byte	-64
ARM GAS  C:\Users\Kevin\AppData\Local\Temp\ccbQlqyF.s 			page 29


 927 0170 E4       		.byte	-28
 928 0171 40       		.byte	64
 929 0172 E5       		.byte	-27
 930 0173 40       		.byte	64
 931 0174 E6       		.byte	-26
 932 0175 C0       		.byte	-64
 933 0176 E8       		.byte	-24
 934 0177 C0       		.byte	-64
 935 0178 EA       		.byte	-22
 936 0179 C0       		.byte	-64
 937 017a EC       		.byte	-20
 938 017b C0       		.byte	-64
 939 017c EE       		.byte	-18
 940 017d C0       		.byte	-64
 941 017e 00       		.byte	0
 942 017f 04       		.byte	4
 943 0180 02       		.byte	2
 944 0181 02       		.byte	2
 945 0182 09       		.byte	9
 946 0183 02       		.byte	2
 947 0184 10       		.byte	16
 948 0185 20       		.byte	32
 949 0186 18       		.byte	24
 950 0187 04       		.byte	4
 951 0188 19       		.byte	25
 952 0189 08       		.byte	8
 953 018a 1B       		.byte	27
 954 018b 91       		.byte	-111
 955 018c 22       		.byte	34
 956 018d 40       		.byte	64
 957 018e 2B       		.byte	43
 958 018f 01       		.byte	1
 959 0190 30       		.byte	48
 960 0191 20       		.byte	32
 961 0192 40       		.byte	64
 962 0193 04       		.byte	4
 963 0194 48       		.byte	72
 964 0195 20       		.byte	32
 965 0196 49       		.byte	73
 966 0197 01       		.byte	1
 967 0198 4A       		.byte	74
 968 0199 02       		.byte	2
 969 019a 4E       		.byte	78
 970 019b 02       		.byte	2
 971 019c 4F       		.byte	79
 972 019d 20       		.byte	32
 973 019e 52       		.byte	82
 974 019f 02       		.byte	2
 975 01a0 59       		.byte	89
 976 01a1 09       		.byte	9
 977 01a2 5A       		.byte	90
 978 01a3 80       		.byte	-128
 979 01a4 71       		.byte	113
 980 01a5 02       		.byte	2
 981 01a6 83       		.byte	-125
 982 01a7 80       		.byte	-128
 983 01a8 C0       		.byte	-64
ARM GAS  C:\Users\Kevin\AppData\Local\Temp\ccbQlqyF.s 			page 30


 984 01a9 05       		.byte	5
 985 01aa C2       		.byte	-62
 986 01ab 08       		.byte	8
 987 01ac C4       		.byte	-60
 988 01ad 04       		.byte	4
 989 01ae CA       		.byte	-54
 990 01af 08       		.byte	8
 991 01b0 CC       		.byte	-52
 992 01b1 04       		.byte	4
 993 01b2 D0       		.byte	-48
 994 01b3 04       		.byte	4
 995 01b4 D2       		.byte	-46
 996 01b5 38       		.byte	56
 997 01b6 D6       		.byte	-42
 998 01b7 0B       		.byte	11
 999 01b8 E4       		.byte	-28
 1000 01b9 04       		.byte	4
 1001 01ba 8A       		.byte	-118
 1002 01bb 02       		.byte	2
 1003 01bc E4       		.byte	-28
 1004 01bd 04       		.byte	4
 1005 01be 52       		.byte	82
 1006 01bf 02       		.byte	2
 1007 01c0 67       		.byte	103
 1008 01c1 02       		.byte	2
 1009 01c2 83       		.byte	-125
 1010 01c3 01       		.byte	1
 1011 01c4 A2       		.byte	-94
 1012 01c5 02       		.byte	2
 1013 01c6 D4       		.byte	-44
 1014 01c7 01       		.byte	1
 1015 01c8 D6       		.byte	-42
 1016 01c9 01       		.byte	1
 1017 01ca 10       		.byte	16
 1018 01cb 0E       		.byte	14
 1019 01cc 11       		.byte	17
 1020 01cd 01       		.byte	1
 1021 01ce 0000     		.text
 1022              	.Letext0:
 1023              		.file 2 "c:\\program files (x86)\\cypress\\psoc creator\\3.3\\psoc creator\\import\\gnu\\arm\\4.9.
 1024              		.file 3 ".\\Generated_Source\\PSoC4\\cytypes.h"
 1025              		.file 4 ".\\Generated_Source\\PSoC4\\CyLib.h"
 1026              		.file 5 ".\\Generated_Source\\PSoC4\\CyLFClk.h"