ARM GAS  C:\Users\Kevin\AppData\Local\Temp\ccL26kon.s 			page 1


   1              		.cpu cortex-m0
   2              		.fpu softvfp
   3              		.eabi_attribute 20, 1
   4              		.eabi_attribute 21, 1
   5              		.eabi_attribute 23, 3
   6              		.eabi_attribute 24, 1
   7              		.eabi_attribute 25, 1
   8              		.eabi_attribute 26, 1
   9              		.eabi_attribute 30, 1
  10              		.eabi_attribute 34, 0
  11              		.eabi_attribute 18, 4
  12              		.code	16
  13              		.file	"Em_EEPROM.c"
  14              		.text
  15              	.Ltext0:
  16              		.cfi_sections	.debug_frame
  17              		.section	.text.Em_EEPROM_Start,"ax",%progbits
  18              		.align	2
  19              		.global	Em_EEPROM_Start
  20              		.code	16
  21              		.thumb_func
  22              		.type	Em_EEPROM_Start, %function
  23              	Em_EEPROM_Start:
  24              	.LFB2:
  25              		.file 1 ".\\Em_EEPROM.c"
   1:.\Em_EEPROM.c **** /*******************************************************************************
   2:.\Em_EEPROM.c **** * File Name: Em_EEPROM.c
   3:.\Em_EEPROM.c **** * Version 1.10
   4:.\Em_EEPROM.c **** *
   5:.\Em_EEPROM.c **** * Description:
   6:.\Em_EEPROM.c **** *  This file provides the source code to API for the Emulated EEPROM Component.
   7:.\Em_EEPROM.c **** *
   8:.\Em_EEPROM.c **** ********************************************************************************
   9:.\Em_EEPROM.c **** * Copyright 2013, Cypress Semiconductor Corporation.  All rights reserved.
  10:.\Em_EEPROM.c **** * You may use this file only in accordance with the license, terms, conditions,
  11:.\Em_EEPROM.c **** * disclaimers, and limitations in the end user license agreement accompanying
  12:.\Em_EEPROM.c **** * the software package with which this file was provided.
  13:.\Em_EEPROM.c **** *******************************************************************************/
  14:.\Em_EEPROM.c **** 
  15:.\Em_EEPROM.c **** #include "Em_EEPROM.h"
  16:.\Em_EEPROM.c **** 
  17:.\Em_EEPROM.c **** 
  18:.\Em_EEPROM.c **** /*******************************************************************************
  19:.\Em_EEPROM.c **** * Function Name: Em_EEPROM_Start
  20:.\Em_EEPROM.c **** ********************************************************************************
  21:.\Em_EEPROM.c **** *
  22:.\Em_EEPROM.c **** * Summary:
  23:.\Em_EEPROM.c **** *  Empty function. Included for consistency with other
  24:.\Em_EEPROM.c **** *  components.
  25:.\Em_EEPROM.c **** *
  26:.\Em_EEPROM.c **** * Parameters:
  27:.\Em_EEPROM.c **** *  None
  28:.\Em_EEPROM.c **** *
  29:.\Em_EEPROM.c **** * Return:
  30:.\Em_EEPROM.c **** *  None
  31:.\Em_EEPROM.c **** *
  32:.\Em_EEPROM.c **** *******************************************************************************/
ARM GAS  C:\Users\Kevin\AppData\Local\Temp\ccL26kon.s 			page 2


  33:.\Em_EEPROM.c **** void Em_EEPROM_Start(void) 
  34:.\Em_EEPROM.c **** {
  26              		.loc 1 34 0
  27              		.cfi_startproc
  35:.\Em_EEPROM.c **** 
  36:.\Em_EEPROM.c **** }
  28              		.loc 1 36 0
  29              		@ sp needed
  30 0000 7047     		bx	lr
  31              		.cfi_endproc
  32              	.LFE2:
  33              		.size	Em_EEPROM_Start, .-Em_EEPROM_Start
  34 0002 C046     		.section	.text.Em_EEPROM_Stop,"ax",%progbits
  35              		.align	2
  36              		.global	Em_EEPROM_Stop
  37              		.code	16
  38              		.thumb_func
  39              		.type	Em_EEPROM_Stop, %function
  40              	Em_EEPROM_Stop:
  41              	.LFB3:
  37:.\Em_EEPROM.c **** 
  38:.\Em_EEPROM.c **** 
  39:.\Em_EEPROM.c **** /*******************************************************************************
  40:.\Em_EEPROM.c **** * Function Name: Em_EEPROM_Stop
  41:.\Em_EEPROM.c **** ********************************************************************************
  42:.\Em_EEPROM.c **** *
  43:.\Em_EEPROM.c **** * Summary:
  44:.\Em_EEPROM.c **** *  Empty function. Included for consistency with other
  45:.\Em_EEPROM.c **** *  components.
  46:.\Em_EEPROM.c **** *
  47:.\Em_EEPROM.c **** * Parameters:
  48:.\Em_EEPROM.c **** *  None
  49:.\Em_EEPROM.c **** *
  50:.\Em_EEPROM.c **** * Return:
  51:.\Em_EEPROM.c **** *  None
  52:.\Em_EEPROM.c **** *
  53:.\Em_EEPROM.c **** *******************************************************************************/
  54:.\Em_EEPROM.c **** void Em_EEPROM_Stop(void) 
  55:.\Em_EEPROM.c **** {
  42              		.loc 1 55 0
  43              		.cfi_startproc
  56:.\Em_EEPROM.c **** 
  57:.\Em_EEPROM.c **** }
  44              		.loc 1 57 0
  45              		@ sp needed
  46 0000 7047     		bx	lr
  47              		.cfi_endproc
  48              	.LFE3:
  49              		.size	Em_EEPROM_Stop, .-Em_EEPROM_Stop
  50 0002 C046     		.section	.text.Em_EEPROM_Write,"ax",%progbits
  51              		.align	2
  52              		.global	Em_EEPROM_Write
  53              		.code	16
  54              		.thumb_func
  55              		.type	Em_EEPROM_Write, %function
  56              	Em_EEPROM_Write:
  57              	.LFB4:
ARM GAS  C:\Users\Kevin\AppData\Local\Temp\ccL26kon.s 			page 3


  58:.\Em_EEPROM.c **** 
  59:.\Em_EEPROM.c **** 
  60:.\Em_EEPROM.c **** /*******************************************************************************
  61:.\Em_EEPROM.c **** * Function Name: Em_EEPROM_Write
  62:.\Em_EEPROM.c **** ********************************************************************************
  63:.\Em_EEPROM.c **** *
  64:.\Em_EEPROM.c **** * Summary:
  65:.\Em_EEPROM.c **** *  Writes the specified number of bytes from the source buffer in SRAM to the
  66:.\Em_EEPROM.c **** *  emulated EEPROM array in flash, without modifying other data in flash.
  67:.\Em_EEPROM.c **** *
  68:.\Em_EEPROM.c **** * Parameters:
  69:.\Em_EEPROM.c **** *  srcBuf:    Pointer to the SRAM buffer holding the data to write.
  70:.\Em_EEPROM.c **** *  eepromPtr: Pointer to the array or variable in flash representing
  71:.\Em_EEPROM.c **** *             the emulated EEPROM.
  72:.\Em_EEPROM.c **** *  byteCount: Number of bytes to write from srcBuf to eepromPtr.
  73:.\Em_EEPROM.c **** *
  74:.\Em_EEPROM.c **** * Return:
  75:.\Em_EEPROM.c **** *    CYRET_SUCCESS     Successful write.
  76:.\Em_EEPROM.c **** *    CYRET_BAD_PARAM   eepromPtr is out of range of flash memory.
  77:.\Em_EEPROM.c **** *    CYRET_UNKNOWN     Other error in writing flash.
  78:.\Em_EEPROM.c **** *
  79:.\Em_EEPROM.c **** *******************************************************************************/
  80:.\Em_EEPROM.c **** #if (CY_PSOC3)
  81:.\Em_EEPROM.c ****     cystatus Em_EEPROM_Write(const uint8 srcBuf[], const uint8 eepromPtr[], uint16 byteCount)
  82:.\Em_EEPROM.c ****                                                                             
  83:.\Em_EEPROM.c **** #else
  84:.\Em_EEPROM.c ****     cystatus Em_EEPROM_Write(const uint8 srcBuf[], const uint8 eepromPtr[], uint32 byteCount)
  85:.\Em_EEPROM.c **** #endif /* (!CY_PSOC3) */
  86:.\Em_EEPROM.c **** {
  58              		.loc 1 86 0
  59              		.cfi_startproc
  60              	.LVL0:
  61 0000 F0B5     		push	{r4, r5, r6, r7, lr}
  62              		.cfi_def_cfa_offset 20
  63              		.cfi_offset 4, -20
  64              		.cfi_offset 5, -16
  65              		.cfi_offset 6, -12
  66              		.cfi_offset 7, -8
  67              		.cfi_offset 14, -4
  68 0002 4F46     		mov	r7, r9
  69 0004 4646     		mov	r6, r8
  70 0006 C0B4     		push	{r6, r7}
  71              		.cfi_def_cfa_offset 28
  72              		.cfi_offset 8, -28
  73              		.cfi_offset 9, -24
  74 0008 A1B0     		sub	sp, sp, #132
  75              		.cfi_def_cfa_offset 160
  87:.\Em_EEPROM.c ****     uint8 writeBuffer[CY_FLASH_SIZEOF_ROW];
  88:.\Em_EEPROM.c ****     uint32 arrayId;
  89:.\Em_EEPROM.c ****     uint32 rowId;
  90:.\Em_EEPROM.c ****     uint32 dstIndex;
  91:.\Em_EEPROM.c ****     uint32 srcIndex;
  92:.\Em_EEPROM.c ****     cystatus rc;
  93:.\Em_EEPROM.c ****     uint32 eeOffset;
  94:.\Em_EEPROM.c ****     uint32 byteOffset;
  95:.\Em_EEPROM.c ****     
  96:.\Em_EEPROM.c ****     #if (!CY_PSOC4)
ARM GAS  C:\Users\Kevin\AppData\Local\Temp\ccL26kon.s 			page 4


  97:.\Em_EEPROM.c ****         #if (CYDEV_ECC_ENABLE == 0)
  98:.\Em_EEPROM.c ****             uint8 rowBuffer[CY_FLASH_SIZEOF_ROW + CY_FLASH_SIZEOF_ECC_ROW];
  99:.\Em_EEPROM.c ****         #endif /* CYDEV_ECC_ENABLE == 0) */
 100:.\Em_EEPROM.c ****     #endif /* (!CY_PSOC4) */
 101:.\Em_EEPROM.c **** 
 102:.\Em_EEPROM.c ****     eeOffset = (uint32)eepromPtr;
  76              		.loc 1 102 0
  77 000a 0E1C     		mov	r6, r1
  78              	.LVL1:
 103:.\Em_EEPROM.c ****     #if (CY_PSOC3)
 104:.\Em_EEPROM.c ****         eeOffset &= Em_EEPROM_CODE_ADDR_MASK;
 105:.\Em_EEPROM.c ****     #endif /* (CY_PSOC3) */
 106:.\Em_EEPROM.c **** 
 107:.\Em_EEPROM.c ****     /* Make sure, that eepromPtr[] points to ROM */
 108:.\Em_EEPROM.c ****     #if (CY_PSOC3)
 109:.\Em_EEPROM.c ****         if (((uint32)eepromPtr >= Em_EEPROM_CODE_ADDR_OFFSET) &&
 110:.\Em_EEPROM.c ****             (((uint32)eepromPtr + byteCount) <= Em_EEPROM_CODE_ADDR_END))
 111:.\Em_EEPROM.c ****     #else
 112:.\Em_EEPROM.c ****         if (((uint32)eepromPtr + byteCount) < Em_EEPROM_FLASH_END_ADDR)
  79              		.loc 1 112 0
  80 000c 8C18     		add	r4, r1, r2
  81 000e 1E4B     		ldr	r3, .L16
  82 0010 9C42     		cmp	r4, r3
  83 0012 2FD8     		bhi	.L12
  84 0014 171C     		mov	r7, r2
  85 0016 8046     		mov	r8, r0
 113:.\Em_EEPROM.c ****     #endif /* (CY_PSOC3) */
 114:.\Em_EEPROM.c ****     {
 115:.\Em_EEPROM.c ****         #if (!CY_PSOC4)
 116:.\Em_EEPROM.c ****             (void)CySetTemp();
 117:.\Em_EEPROM.c **** 
 118:.\Em_EEPROM.c ****             #if(CYDEV_ECC_ENABLE == 0)
 119:.\Em_EEPROM.c ****                 (void)CySetFlashEEBuffer(rowBuffer);
 120:.\Em_EEPROM.c ****             #endif
 121:.\Em_EEPROM.c ****         #endif /* (!CY_PSOC4) */
 122:.\Em_EEPROM.c **** 
 123:.\Em_EEPROM.c ****         arrayId = eeOffset / CY_FLASH_SIZEOF_ARRAY;
  86              		.loc 1 123 0
  87 0018 0C0C     		lsr	r4, r1, #16
  88              	.LVL2:
 124:.\Em_EEPROM.c ****         rowId = (eeOffset / CY_FLASH_SIZEOF_ROW) % Em_EEPROM_ROWS_IN_ARRAY;
  89              		.loc 1 124 0
  90 001a 0904     		lsl	r1, r1, #16
  91              	.LVL3:
  92 001c CB0D     		lsr	r3, r1, #23
  93 001e 9946     		mov	r9, r3
  94              	.LVL4:
 125:.\Em_EEPROM.c ****         byteOffset = (CY_FLASH_SIZEOF_ARRAY * arrayId) + (CY_FLASH_SIZEOF_ROW * rowId);
  95              		.loc 1 125 0
  96 0020 6402     		lsl	r4, r4, #9
  97              	.LVL5:
  98 0022 4C44     		add	r4, r4, r9
  99 0024 E401     		lsl	r4, r4, #7
 100              	.LVL6:
 126:.\Em_EEPROM.c ****         srcIndex = 0u;
 127:.\Em_EEPROM.c **** 
 128:.\Em_EEPROM.c ****         rc = CYRET_SUCCESS;
ARM GAS  C:\Users\Kevin\AppData\Local\Temp\ccL26kon.s 			page 5


 101              		.loc 1 128 0
 102 0026 0020     		mov	r0, #0
 103              	.LVL7:
 126:.\Em_EEPROM.c ****         srcIndex = 0u;
 104              		.loc 1 126 0
 105 0028 0025     		mov	r5, #0
 129:.\Em_EEPROM.c **** 
 130:.\Em_EEPROM.c ****         while ((srcIndex < byteCount) && (CYRET_SUCCESS == rc))
 106              		.loc 1 130 0
 107 002a 1EE0     		b	.L5
 108              	.LVL8:
 109              	.L8:
 131:.\Em_EEPROM.c ****         {
 132:.\Em_EEPROM.c ****             /* Copy data to the write buffer either from the source buffer or from the flash */
 133:.\Em_EEPROM.c ****             for (dstIndex = 0u; dstIndex < CY_FLASH_SIZEOF_ROW; dstIndex++)
 134:.\Em_EEPROM.c ****             {
 135:.\Em_EEPROM.c ****                 if ((byteOffset >= eeOffset) && (srcIndex < byteCount))
 110              		.loc 1 135 0
 111 002c B442     		cmp	r4, r6
 112 002e 07D3     		bcc	.L6
 113              		.loc 1 135 0 is_stmt 0 discriminator 1
 114 0030 BD42     		cmp	r5, r7
 115 0032 05D2     		bcs	.L6
 136:.\Em_EEPROM.c ****                 {
 137:.\Em_EEPROM.c ****                     writeBuffer[dstIndex] = srcBuf[srcIndex];
 116              		.loc 1 137 0 is_stmt 1
 117 0034 4246     		mov	r2, r8
 118 0036 525D     		ldrb	r2, [r2, r5]
 119 0038 6946     		mov	r1, sp
 120 003a CA54     		strb	r2, [r1, r3]
 138:.\Em_EEPROM.c ****                     srcIndex++;
 121              		.loc 1 138 0
 122 003c 0135     		add	r5, r5, #1
 123              	.LVL9:
 124 003e 02E0     		b	.L7
 125              	.L6:
 139:.\Em_EEPROM.c ****                 }
 140:.\Em_EEPROM.c ****                 else
 141:.\Em_EEPROM.c ****                 {
 142:.\Em_EEPROM.c ****                     writeBuffer[dstIndex] = CY_GET_XTND_REG8(CYDEV_FLASH_BASE + byteOffset);
 126              		.loc 1 142 0
 127 0040 2278     		ldrb	r2, [r4]
 128 0042 6946     		mov	r1, sp
 129 0044 CA54     		strb	r2, [r1, r3]
 130              	.L7:
 143:.\Em_EEPROM.c ****                 }
 144:.\Em_EEPROM.c ****                 byteOffset++;
 131              		.loc 1 144 0 discriminator 2
 132 0046 0134     		add	r4, r4, #1
 133              	.LVL10:
 133:.\Em_EEPROM.c ****             {
 134              		.loc 1 133 0 discriminator 2
 135 0048 0133     		add	r3, r3, #1
 136              	.LVL11:
 137 004a 00E0     		b	.L10
 138              	.LVL12:
 139              	.L14:
ARM GAS  C:\Users\Kevin\AppData\Local\Temp\ccL26kon.s 			page 6


 140 004c 0023     		mov	r3, #0
 141              	.L10:
 142              	.LVL13:
 133:.\Em_EEPROM.c ****             {
 143              		.loc 1 133 0 is_stmt 0 discriminator 1
 144 004e 7F2B     		cmp	r3, #127
 145 0050 ECD9     		bls	.L8
 145:.\Em_EEPROM.c ****             }
 146:.\Em_EEPROM.c **** 
 147:.\Em_EEPROM.c ****             /* Write flash row */
 148:.\Em_EEPROM.c ****             #if (CY_PSOC4)
 149:.\Em_EEPROM.c ****                 rc = CySysFlashWriteRow(rowId, writeBuffer);
 146              		.loc 1 149 0 is_stmt 1
 147 0052 4846     		mov	r0, r9
 148              	.LVL14:
 149 0054 6946     		mov	r1, sp
 150 0056 FFF7FEFF 		bl	CySysFlashWriteRow
 151              	.LVL15:
 150:.\Em_EEPROM.c ****             #else
 151:.\Em_EEPROM.c ****                 rc = CyWriteRowData((uint8)arrayId, (uint16)rowId, writeBuffer);
 152:.\Em_EEPROM.c ****             #endif /* (CY_PSOC4) */
 153:.\Em_EEPROM.c **** 
 154:.\Em_EEPROM.c ****             /* Go to the next row */
 155:.\Em_EEPROM.c ****             rowId++;
 152              		.loc 1 155 0
 153 005a 0123     		mov	r3, #1
 154 005c 9C46     		mov	ip, r3
 155 005e E144     		add	r9, r9, ip
 156              	.LVL16:
 156:.\Em_EEPROM.c ****             #if (CY_FLASH_NUMBER_ARRAYS > 1)
 157:.\Em_EEPROM.c ****                 if (rowId >= Em_EEPROM_ROWS_IN_ARRAY)
 157              		.loc 1 157 0
 158 0060 0A4B     		ldr	r3, .L16+4
 159 0062 9945     		cmp	r9, r3
 160 0064 01D9     		bls	.L5
 158:.\Em_EEPROM.c ****                 {
 159:.\Em_EEPROM.c ****                     arrayId++;
 160:.\Em_EEPROM.c ****                     rowId = 0u;
 161              		.loc 1 160 0
 162 0066 0023     		mov	r3, #0
 163 0068 9946     		mov	r9, r3
 164              	.LVL17:
 165              	.L5:
 130:.\Em_EEPROM.c ****         {
 166              		.loc 1 130 0
 167 006a BD42     		cmp	r5, r7
 168 006c 03D2     		bcs	.L4
 130:.\Em_EEPROM.c ****         {
 169              		.loc 1 130 0 is_stmt 0 discriminator 1
 170 006e 0028     		cmp	r0, #0
 171 0070 ECD0     		beq	.L14
 172 0072 00E0     		b	.L4
 173              	.LVL18:
 174              	.L12:
 161:.\Em_EEPROM.c ****                 }
 162:.\Em_EEPROM.c ****             #endif /* (CY_FLASH_NUMBER_ARRAYS > 1) */
 163:.\Em_EEPROM.c ****         }
ARM GAS  C:\Users\Kevin\AppData\Local\Temp\ccL26kon.s 			page 7


 164:.\Em_EEPROM.c **** 
 165:.\Em_EEPROM.c ****         /* Flush both Cache and PHUB prefetch buffer */
 166:.\Em_EEPROM.c ****         #if (CY_PSOC5)
 167:.\Em_EEPROM.c ****             CyFlushCache();
 168:.\Em_EEPROM.c ****         #elif (CY_PSOC3)
 169:.\Em_EEPROM.c ****             CY_FLASH_CONTROL_REG |= 6u;
 170:.\Em_EEPROM.c ****         #endif /* (CY_PSOC5) */
 171:.\Em_EEPROM.c ****     }
 172:.\Em_EEPROM.c ****     else
 173:.\Em_EEPROM.c ****     {
 174:.\Em_EEPROM.c ****         rc = CYRET_BAD_PARAM;
 175              		.loc 1 174 0 is_stmt 1
 176 0074 0120     		mov	r0, #1
 177              	.LVL19:
 178              	.L4:
 175:.\Em_EEPROM.c ****     }
 176:.\Em_EEPROM.c **** 
 177:.\Em_EEPROM.c ****     /* Mask return codes from flash, if they are not supported */
 178:.\Em_EEPROM.c ****     if ((CYRET_SUCCESS != rc) && (CYRET_BAD_PARAM != rc))
 179              		.loc 1 178 0
 180 0076 0128     		cmp	r0, #1
 181 0078 01D9     		bls	.L11
 179:.\Em_EEPROM.c ****     {
 180:.\Em_EEPROM.c ****         rc = CYRET_UNKNOWN;
 182              		.loc 1 180 0
 183 007a 0120     		mov	r0, #1
 184              	.LVL20:
 185 007c 4042     		neg	r0, r0
 186              	.L11:
 187              	.LVL21:
 181:.\Em_EEPROM.c ****     }
 182:.\Em_EEPROM.c ****     
 183:.\Em_EEPROM.c ****     return (rc);
 184:.\Em_EEPROM.c **** }
 188              		.loc 1 184 0
 189 007e 21B0     		add	sp, sp, #132
 190              		@ sp needed
 191              	.LVL22:
 192 0080 0CBC     		pop	{r2, r3}
 193 0082 9046     		mov	r8, r2
 194 0084 9946     		mov	r9, r3
 195 0086 F0BD     		pop	{r4, r5, r6, r7, pc}
 196              	.L17:
 197              		.align	2
 198              	.L16:
 199 0088 FFFF0100 		.word	131071
 200 008c FF010000 		.word	511
 201              		.cfi_endproc
 202              	.LFE4:
 203              		.size	Em_EEPROM_Write, .-Em_EEPROM_Write
 204              		.text
 205              	.Letext0:
 206              		.file 2 "Generated_Source\\PSoC4/cytypes.h"
 207              		.file 3 "Generated_Source\\PSoC4/CyFlash.h"