ARM GAS  C:\Users\Kevin\AppData\Local\Temp\ccavFbot.s 			page 1


   1              		.cpu cortex-m0
   2              		.fpu softvfp
   3              		.eabi_attribute 20, 1
   4              		.eabi_attribute 21, 1
   5              		.eabi_attribute 23, 3
   6              		.eabi_attribute 24, 1
   7              		.eabi_attribute 25, 1
   8              		.eabi_attribute 26, 1
   9              		.eabi_attribute 30, 6
  10              		.eabi_attribute 34, 0
  11              		.eabi_attribute 18, 4
  12              		.code	16
  13              		.file	"main.c"
  14              		.text
  15              	.Ltext0:
  16              		.cfi_sections	.debug_frame
  17              		.comm	servoTimes,22,4
  18              		.comm	servo1Positions,22,4
  19              		.comm	DataSet,52,4
  20              		.comm	time_10ms,4,4
  21              		.comm	flight_fase,1,1
  22              		.comm	timeStep,4,4
  23              		.comm	str,50,4
  24              		.section	.text.SWPin_Control,"ax",%progbits
  25              		.align	2
  26              		.global	SWPin_Control
  27              		.code	16
  28              		.thumb_func
  29              		.type	SWPin_Control, %function
  30              	SWPin_Control:
  31              	.LFB35:
  32              		.file 1 ".\\main.c"
   1:.\main.c      **** /* ========================================
   2:.\main.c      ****  *
   3:.\main.c      ****  * Copyright YOUR COMPANY, THE YEAR
   4:.\main.c      ****  * All Rights Reserved
   5:.\main.c      ****  * UNPUBLISHED, LICENSED SOFTWARE.
   6:.\main.c      ****  *
   7:.\main.c      ****  * CONFIDENTIAL AND PROPRIETARY INFORMATION
   8:.\main.c      ****  * WHICH IS THE PROPERTY OF your company.
   9:.\main.c      ****  *
  10:.\main.c      ****  * ========================================
  11:.\main.c      **** */
  12:.\main.c      **** #include <main.h>
  13:.\main.c      **** 
  14:.\main.c      **** char str[50]; // Make large enough, otherwise undefined behaviour.
  15:.\main.c      **** 
  16:.\main.c      **** CY_ISR(SWPin_Control)
  17:.\main.c      **** {
  33              		.loc 1 17 0
  34              		.cfi_startproc
  35 0000 80B5     		push	{r7, lr}
  36              		.cfi_def_cfa_offset 8
  37              		.cfi_offset 7, -8
  38              		.cfi_offset 14, -4
  39 0002 00AF     		add	r7, sp, #0
  40              		.cfi_def_cfa_register 7
ARM GAS  C:\Users\Kevin\AppData\Local\Temp\ccavFbot.s 			page 2


  18:.\main.c      ****     if(InputPin_Read() == 0u)
  41              		.loc 1 18 0
  42 0004 FFF7FEFF 		bl	InputPin_Read
  43 0008 031E     		sub	r3, r0, #0
  44 000a 08D1     		bne	.L2
  19:.\main.c      ****     {
  20:.\main.c      ****         PWM_Beep_Start();
  45              		.loc 1 20 0
  46 000c FFF7FEFF 		bl	PWM_Beep_Start
  21:.\main.c      ****         PWM_Beep_WriteCompare(4u);
  47              		.loc 1 21 0
  48 0010 0420     		mov	r0, #4
  49 0012 FFF7FEFF 		bl	PWM_Beep_WriteCompare
  22:.\main.c      ****         flight_fase = fase_Ready;
  50              		.loc 1 22 0
  51 0016 094B     		ldr	r3, .L4
  52 0018 0122     		mov	r2, #1
  53 001a 1A70     		strb	r2, [r3]
  54 001c 0AE0     		b	.L3
  55              	.L2:
  23:.\main.c      ****     }
  24:.\main.c      ****     else
  25:.\main.c      ****     {
  26:.\main.c      ****         PWM_Beep_WriteCompare(0u);
  56              		.loc 1 26 0
  57 001e 0020     		mov	r0, #0
  58 0020 FFF7FEFF 		bl	PWM_Beep_WriteCompare
  27:.\main.c      ****         //UpdateServoPWM(DataSet);
  28:.\main.c      ****         flight_fase = fase_Flight;
  59              		.loc 1 28 0
  60 0024 054B     		ldr	r3, .L4
  61 0026 0222     		mov	r2, #2
  62 0028 1A70     		strb	r2, [r3]
  29:.\main.c      ****         PWM_Beep_Stop();
  63              		.loc 1 29 0
  64 002a FFF7FEFF 		bl	PWM_Beep_Stop
  30:.\main.c      ****         time_10ms = 0;
  65              		.loc 1 30 0
  66 002e 044B     		ldr	r3, .L4+4
  67 0030 0022     		mov	r2, #0
  68 0032 1A60     		str	r2, [r3]
  69              	.L3:
  31:.\main.c      ****     }
  32:.\main.c      ****     InputPin_ClearInterrupt();
  70              		.loc 1 32 0
  71 0034 FFF7FEFF 		bl	InputPin_ClearInterrupt
  33:.\main.c      **** }
  72              		.loc 1 33 0
  73 0038 BD46     		mov	sp, r7
  74              		@ sp needed
  75 003a 80BD     		pop	{r7, pc}
  76              	.L5:
  77              		.align	2
  78              	.L4:
  79 003c 00000000 		.word	flight_fase
  80 0040 00000000 		.word	time_10ms
  81              		.cfi_endproc
ARM GAS  C:\Users\Kevin\AppData\Local\Temp\ccavFbot.s 			page 3


  82              	.LFE35:
  83              		.size	SWPin_Control, .-SWPin_Control
  84              		.section	.text.TimerStep,"ax",%progbits
  85              		.align	2
  86              		.global	TimerStep
  87              		.code	16
  88              		.thumb_func
  89              		.type	TimerStep, %function
  90              	TimerStep:
  91              	.LFB36:
  34:.\main.c      **** 
  35:.\main.c      **** CY_ISR(TimerStep)
  36:.\main.c      **** {
  92              		.loc 1 36 0
  93              		.cfi_startproc
  94 0000 80B5     		push	{r7, lr}
  95              		.cfi_def_cfa_offset 8
  96              		.cfi_offset 7, -8
  97              		.cfi_offset 14, -4
  98 0002 82B0     		sub	sp, sp, #8
  99              		.cfi_def_cfa_offset 16
 100 0004 00AF     		add	r7, sp, #0
 101              		.cfi_def_cfa_register 7
  37:.\main.c      ****     time_10ms++;
 102              		.loc 1 37 0
 103 0006 084B     		ldr	r3, .L7
 104 0008 1B68     		ldr	r3, [r3]
 105 000a 5A1C     		add	r2, r3, #1
 106 000c 064B     		ldr	r3, .L7
 107 000e 1A60     		str	r2, [r3]
  38:.\main.c      ****     uint32 source = Timer_10ms_GetInterruptSourceMasked();
 108              		.loc 1 38 0
 109 0010 FFF7FEFF 		bl	Timer_10ms_GetInterruptSourceMasked
 110 0014 031C     		mov	r3, r0
 111 0016 7B60     		str	r3, [r7, #4]
  39:.\main.c      ****     Timer_10ms_ClearInterrupt(source);
 112              		.loc 1 39 0
 113 0018 7B68     		ldr	r3, [r7, #4]
 114 001a 181C     		mov	r0, r3
 115 001c FFF7FEFF 		bl	Timer_10ms_ClearInterrupt
  40:.\main.c      ****     
  41:.\main.c      **** }
 116              		.loc 1 41 0
 117 0020 BD46     		mov	sp, r7
 118 0022 02B0     		add	sp, sp, #8
 119              		@ sp needed
 120 0024 80BD     		pop	{r7, pc}
 121              	.L8:
 122 0026 C046     		.align	2
 123              	.L7:
 124 0028 00000000 		.word	time_10ms
 125              		.cfi_endproc
 126              	.LFE36:
 127              		.size	TimerStep, .-TimerStep
 128              		.section	.rodata
 129              		.align	2
 130              	.LC5:
ARM GAS  C:\Users\Kevin\AppData\Local\Temp\ccavFbot.s 			page 4


 131 0000 0D0A00   		.ascii	"\015\012\000"
 132 0003 00       		.align	2
 133              	.LC7:
 134 0004 55415254 		.ascii	"UART Initialised\015\012\000"
 134      20496E69 
 134      7469616C 
 134      69736564 
 134      0D0A00
 135 0017 00       		.align	2
 136              	.LC15:
 137 0018 4E657874 		.ascii	"Next Servo Position!\015\012\000"
 137      20536572 
 137      766F2050 
 137      6F736974 
 137      696F6E21 
 138 002f 00       		.align	2
 139              	.LC18:
 140 0030 74696D65 		.ascii	"timeStep: %d\015\012\000"
 140      53746570 
 140      3A202564 
 140      0D0A00
 141 003f 00       		.align	2
 142              	.LC21:
 143 0040 73657276 		.ascii	"servo1position[timeStep]: %u\015\012\000"
 143      6F31706F 
 143      73697469 
 143      6F6E5B74 
 143      696D6553 
 144              		.section	.text.main,"ax",%progbits
 145              		.align	2
 146              		.global	main
 147              		.code	16
 148              		.thumb_func
 149              		.type	main, %function
 150              	main:
 151              	.LFB37:
  42:.\main.c      **** 
  43:.\main.c      **** int main()
  44:.\main.c      **** {
 152              		.loc 1 44 0
 153              		.cfi_startproc
 154 0000 80B5     		push	{r7, lr}
 155              		.cfi_def_cfa_offset 8
 156              		.cfi_offset 7, -8
 157              		.cfi_offset 14, -4
 158 0002 82B0     		sub	sp, sp, #8
 159              		.cfi_def_cfa_offset 16
 160 0004 00AF     		add	r7, sp, #0
 161              		.cfi_def_cfa_register 7
  45:.\main.c      ****     /* Place your initialization/startup code here (e.g. MyInst_Start()) */
  46:.\main.c      ****     InitializeSystem();
 162              		.loc 1 46 0
 163 0006 FFF7FEFF 		bl	InitializeSystem
  47:.\main.c      ****    
  48:.\main.c      ****     InputInterrupt_StartEx(SWPin_Control);
 164              		.loc 1 48 0
 165 000a 404B     		ldr	r3, .L23
ARM GAS  C:\Users\Kevin\AppData\Local\Temp\ccavFbot.s 			page 5


 166 000c 181C     		mov	r0, r3
 167 000e FFF7FEFF 		bl	InputInterrupt_StartEx
  49:.\main.c      ****     
  50:.\main.c      ****     TimerInterrupt_StartEx(TimerStep);
 168              		.loc 1 50 0
 169 0012 3F4B     		ldr	r3, .L23+4
 170 0014 181C     		mov	r0, r3
 171 0016 FFF7FEFF 		bl	TimerInterrupt_StartEx
  51:.\main.c      ****     
  52:.\main.c      ****     CyGlobalIntEnable;
 172              		.loc 1 52 0
 173              	@ 52 ".\main.c" 1
 174 001a 62B6     		CPSIE   i
 175              	@ 0 "" 2
  53:.\main.c      ****     
  54:.\main.c      ****     UART_Start();
 176              		.loc 1 54 0
 177              		.code	16
 178 001c FFF7FEFF 		bl	UART_Start
  55:.\main.c      ****     UART_UartPutString("\r\n");
 179              		.loc 1 55 0
 180 0020 3C4B     		ldr	r3, .L23+8
 181 0022 181C     		mov	r0, r3
 182 0024 FFF7FEFF 		bl	UART_UartPutString
  56:.\main.c      ****     UART_UartPutString("\r\n");
 183              		.loc 1 56 0
 184 0028 3A4B     		ldr	r3, .L23+8
 185 002a 181C     		mov	r0, r3
 186 002c FFF7FEFF 		bl	UART_UartPutString
  57:.\main.c      ****     UART_UartPutString("UART Initialised\r\n");
 187              		.loc 1 57 0
 188 0030 394B     		ldr	r3, .L23+12
 189 0032 181C     		mov	r0, r3
 190 0034 FFF7FEFF 		bl	UART_UartPutString
  58:.\main.c      ****     
  59:.\main.c      ****    
  60:.\main.c      ****                 
  61:.\main.c      ****     flight_fase = fase_Standby;
 191              		.loc 1 61 0
 192 0038 384B     		ldr	r3, .L23+16
 193 003a 0022     		mov	r2, #0
 194 003c 1A70     		strb	r2, [r3]
  62:.\main.c      ****     
  63:.\main.c      ****     /* Read DataSet from SFlash */
  64:.\main.c      ****     ReadArraySFlash(DataSet, DATA_SET_LEN);
 195              		.loc 1 64 0
 196 003e 384B     		ldr	r3, .L23+20
 197 0040 181C     		mov	r0, r3
 198 0042 3421     		mov	r1, #52
 199 0044 FFF7FEFF 		bl	ReadArraySFlash
  65:.\main.c      ****     
  66:.\main.c      ****    
  67:.\main.c      ****     
  68:.\main.c      ****     UpdateServocharacteristic(DataSet, sizeof(DataSet), CYBLE_SERVOS_SERVO_CONTROL_CHAR_HANDLE);
 200              		.loc 1 68 0
 201 0048 354B     		ldr	r3, .L23+20
 202 004a 181C     		mov	r0, r3
ARM GAS  C:\Users\Kevin\AppData\Local\Temp\ccavFbot.s 			page 6


 203 004c 3421     		mov	r1, #52
 204 004e 0E22     		mov	r2, #14
 205 0050 FFF7FEFF 		bl	UpdateServocharacteristic
  69:.\main.c      **** 
  70:.\main.c      ****     ProcessDataSet();
 206              		.loc 1 70 0
 207 0054 FFF7FEFF 		bl	ProcessDataSet
 208              	.L20:
  71:.\main.c      **** 
  72:.\main.c      ****    
  73:.\main.c      ****     for(;;)
  74:.\main.c      ****     {
  75:.\main.c      ****         /* Place your application code here. */
  76:.\main.c      ****         CyBle_ProcessEvents();
 209              		.loc 1 76 0
 210 0058 FFF7FEFF 		bl	CyBle_ProcessEvents
  77:.\main.c      ****         
  78:.\main.c      ****         
  79:.\main.c      ****         //sprintf(str, "Time_ms: %lu\r\n", time_10ms);
  80:.\main.c      ****         //UART_UartPutString(str);
  81:.\main.c      ****         
  82:.\main.c      ****         switch(flight_fase)
 211              		.loc 1 82 0
 212 005c 2F4B     		ldr	r3, .L23+16
 213 005e 1B78     		ldrb	r3, [r3]
 214 0060 042B     		cmp	r3, #4
 215 0062 4ED8     		bhi	.L21
 216 0064 9A00     		lsl	r2, r3, #2
 217 0066 2F4B     		ldr	r3, .L23+24
 218 0068 D318     		add	r3, r2, r3
 219 006a 1B68     		ldr	r3, [r3]
 220 006c 9F46     		mov	pc, r3
 221              		.section	.rodata
 222 005f 00       		.align	2
 223              	.L12:
 224 0060 06010000 		.word	.L22
 225 0064 6E000000 		.word	.L13
 226 0068 7A000000 		.word	.L14
 227 006c F2000000 		.word	.L15
 228 0070 06010000 		.word	.L22
 229              		.section	.text.main
 230              	.L13:
  83:.\main.c      ****         {    
  84:.\main.c      ****             case fase_Standby:
  85:.\main.c      ****                 /* This event is generated when timer is standby */
  86:.\main.c      ****             break;
  87:.\main.c      ****             
  88:.\main.c      ****             case fase_Ready:
  89:.\main.c      ****                 /* This event is generated when airplane is ready and waiting for launch */
  90:.\main.c      ****                 timeStep = 0;
 231              		.loc 1 90 0
 232 006e 2E4B     		ldr	r3, .L23+28
 233 0070 0022     		mov	r2, #0
 234 0072 1A60     		str	r2, [r3]
  91:.\main.c      ****                 ServoStartPosition();
 235              		.loc 1 91 0
 236 0074 FFF7FEFF 		bl	ServoStartPosition
ARM GAS  C:\Users\Kevin\AppData\Local\Temp\ccavFbot.s 			page 7


  92:.\main.c      ****             break;
 237              		.loc 1 92 0
 238 0078 46E0     		b	.L17
 239              	.L14:
  93:.\main.c      ****             
  94:.\main.c      ****             case fase_Flight:
  95:.\main.c      ****                 /* This event is generated when airplane is flying */
  96:.\main.c      ****                     
  97:.\main.c      ****                         
  98:.\main.c      ****                     Timer_10ms_Start();
 240              		.loc 1 98 0
 241 007a FFF7FEFF 		bl	Timer_10ms_Start
  99:.\main.c      ****                     //UART_UartPutString("Timer Initialised\r\n");
 100:.\main.c      **** 
 101:.\main.c      ****                     /*sprintf(str, "servotimes[0]: %d\r\n", servoTimes[0]);
 102:.\main.c      ****                     UART_UartPutString(str);
 103:.\main.c      ****                
 104:.\main.c      ****                     sprintf(str, "servotimes[0]: %d\r\n", servoTimes[0]);
 105:.\main.c      ****                     UART_UartPutString(str);
 106:.\main.c      ****                     sprintf(str, "servotimes[0]: %d\r\n", servoTimes[0]);
 107:.\main.c      ****                     UART_UartPutString(str);
 108:.\main.c      ****                     sprintf(str, "Dataset[i]: %d\r\n", (DataSet[TIME1_INDEX] | (DataSet[TIME1_INDEX
 109:.\main.c      ****                     UART_UartPutString(str);*/
 110:.\main.c      ****                     
 111:.\main.c      **** //                  
 112:.\main.c      ****                    // UART_UartPutString("bla \r\n");
 113:.\main.c      ****                     if (time_10ms > servoTimes[timeStep])
 242              		.loc 1 113 0
 243 007e 2A4B     		ldr	r3, .L23+28
 244 0080 1A68     		ldr	r2, [r3]
 245 0082 2A4B     		ldr	r3, .L23+32
 246 0084 5200     		lsl	r2, r2, #1
 247 0086 D35A     		ldrh	r3, [r2, r3]
 248 0088 1A1E     		sub	r2, r3, #0
 249 008a 294B     		ldr	r3, .L23+36
 250 008c 1B68     		ldr	r3, [r3]
 251 008e 9A42     		cmp	r2, r3
 252 0090 26D2     		bcs	.L18
 253              	.LBB2:
 114:.\main.c      ****                     {
 115:.\main.c      ****                         UART_UartPutString("Next Servo Position!\r\n");
 254              		.loc 1 115 0
 255 0092 284B     		ldr	r3, .L23+40
 256 0094 181C     		mov	r0, r3
 257 0096 FFF7FEFF 		bl	UART_UartPutString
 116:.\main.c      ****                         sprintf(str, "timeStep: %d\r\n", timeStep);
 258              		.loc 1 116 0
 259 009a 234B     		ldr	r3, .L23+28
 260 009c 1B68     		ldr	r3, [r3]
 261 009e 2649     		ldr	r1, .L23+44
 262 00a0 264A     		ldr	r2, .L23+48
 263 00a2 081C     		mov	r0, r1
 264 00a4 111C     		mov	r1, r2
 265 00a6 1A1C     		mov	r2, r3
 266 00a8 FFF7FEFF 		bl	sprintf
 117:.\main.c      ****                         UART_UartPutString(str);
 267              		.loc 1 117 0
ARM GAS  C:\Users\Kevin\AppData\Local\Temp\ccavFbot.s 			page 8


 268 00ac 224B     		ldr	r3, .L23+44
 269 00ae 181C     		mov	r0, r3
 270 00b0 FFF7FEFF 		bl	UART_UartPutString
 118:.\main.c      ****                         uint16 postemp = servo1Positions[timeStep];
 271              		.loc 1 118 0
 272 00b4 1C4B     		ldr	r3, .L23+28
 273 00b6 1968     		ldr	r1, [r3]
 274 00b8 BB1D     		add	r3, r7, #6
 275 00ba 214A     		ldr	r2, .L23+52
 276 00bc 4900     		lsl	r1, r1, #1
 277 00be 8A5A     		ldrh	r2, [r1, r2]
 278 00c0 1A80     		strh	r2, [r3]
 119:.\main.c      ****                         sprintf(str, "servo1position[timeStep]: %u\r\n", postemp);
 279              		.loc 1 119 0
 280 00c2 BB1D     		add	r3, r7, #6
 281 00c4 1B88     		ldrh	r3, [r3]
 282 00c6 1C49     		ldr	r1, .L23+44
 283 00c8 1E4A     		ldr	r2, .L23+56
 284 00ca 081C     		mov	r0, r1
 285 00cc 111C     		mov	r1, r2
 286 00ce 1A1C     		mov	r2, r3
 287 00d0 FFF7FEFF 		bl	sprintf
 120:.\main.c      ****                         UART_UartPutString(str);
 288              		.loc 1 120 0
 289 00d4 184B     		ldr	r3, .L23+44
 290 00d6 181C     		mov	r0, r3
 291 00d8 FFF7FEFF 		bl	UART_UartPutString
 121:.\main.c      **** 
 122:.\main.c      ****                         ServoNextPosition();
 292              		.loc 1 122 0
 293 00dc FFF7FEFF 		bl	ServoNextPosition
 294              	.L18:
 295              	.LBE2:
 123:.\main.c      ****                     }
 124:.\main.c      ****                     
 125:.\main.c      ****                     if (timeStep>10)
 296              		.loc 1 125 0
 297 00e0 114B     		ldr	r3, .L23+28
 298 00e2 1B68     		ldr	r3, [r3]
 299 00e4 0A2B     		cmp	r3, #10
 300 00e6 03DD     		ble	.L19
 126:.\main.c      ****                     {
 127:.\main.c      ****                         flight_fase = fase_DT;
 301              		.loc 1 127 0
 302 00e8 0C4B     		ldr	r3, .L23+16
 303 00ea 0322     		mov	r2, #3
 304 00ec 1A70     		strb	r2, [r3]
 128:.\main.c      ****                     }
 129:.\main.c      ****             break;
 305              		.loc 1 129 0
 306 00ee 0BE0     		b	.L17
 307              	.L19:
 308              		.loc 1 129 0 is_stmt 0 discriminator 2
 309 00f0 0AE0     		b	.L17
 310              	.L15:
 130:.\main.c      ****             
 131:.\main.c      ****             case fase_DT:
ARM GAS  C:\Users\Kevin\AppData\Local\Temp\ccavFbot.s 			page 9


 132:.\main.c      ****                 /* This event is generated when airplane has DT'ed */
 133:.\main.c      ****                 CyDelay(1000u);
 311              		.loc 1 133 0 is_stmt 1
 312 00f2 FA23     		mov	r3, #250
 313 00f4 9B00     		lsl	r3, r3, #2
 314 00f6 181C     		mov	r0, r3
 315 00f8 FFF7FEFF 		bl	CyDelay
 134:.\main.c      ****                 PWM_12_Stop();
 316              		.loc 1 134 0
 317 00fc FFF7FEFF 		bl	PWM_12_Stop
 135:.\main.c      ****                 
 136:.\main.c      ****             break;
 318              		.loc 1 136 0
 319 0100 02E0     		b	.L17
 320              	.L21:
 137:.\main.c      ****                         
 138:.\main.c      ****             case fase_Sleep:
 139:.\main.c      ****                 /* This event is generated when airplane is sleeping */
 140:.\main.c      ****                 
 141:.\main.c      ****             break;
 142:.\main.c      ****                        
 143:.\main.c      ****         break;
 144:.\main.c      ****  
 145:.\main.c      ****         default:
 146:.\main.c      ****         
 147:.\main.c      ****         break;
 321              		.loc 1 147 0
 322 0102 C046     		mov	r8, r8
 323 0104 A8E7     		b	.L20
 324              	.L22:
 141:.\main.c      ****                        
 325              		.loc 1 141 0
 326 0106 C046     		mov	r8, r8
 327              	.L17:
 148:.\main.c      ****         }
 149:.\main.c      ****     }
 328              		.loc 1 149 0 discriminator 1
 329 0108 A6E7     		b	.L20
 330              	.L24:
 331 010a C046     		.align	2
 332              	.L23:
 333 010c 00000000 		.word	SWPin_Control
 334 0110 00000000 		.word	TimerStep
 335 0114 00000000 		.word	.LC5
 336 0118 04000000 		.word	.LC7
 337 011c 00000000 		.word	flight_fase
 338 0120 00000000 		.word	DataSet
 339 0124 60000000 		.word	.L12
 340 0128 00000000 		.word	timeStep
 341 012c 00000000 		.word	servoTimes
 342 0130 00000000 		.word	time_10ms
 343 0134 18000000 		.word	.LC15
 344 0138 00000000 		.word	str
 345 013c 30000000 		.word	.LC18
 346 0140 00000000 		.word	servo1Positions
 347 0144 40000000 		.word	.LC21
 348              		.cfi_endproc
ARM GAS  C:\Users\Kevin\AppData\Local\Temp\ccavFbot.s 			page 10


 349              	.LFE37:
 350              		.size	main, .-main
 351              		.section	.text.InitializeSystem,"ax",%progbits
 352              		.align	2
 353              		.global	InitializeSystem
 354              		.code	16
 355              		.thumb_func
 356              		.type	InitializeSystem, %function
 357              	InitializeSystem:
 358              	.LFB38:
 150:.\main.c      **** }
 151:.\main.c      **** 
 152:.\main.c      **** void InitializeSystem(void)
 153:.\main.c      **** {
 359              		.loc 1 153 0
 360              		.cfi_startproc
 361 0000 80B5     		push	{r7, lr}
 362              		.cfi_def_cfa_offset 8
 363              		.cfi_offset 7, -8
 364              		.cfi_offset 14, -4
 365 0002 00AF     		add	r7, sp, #0
 366              		.cfi_def_cfa_register 7
 154:.\main.c      ****     /* Enable Global Interrupt Mask */
 155:.\main.c      ****     CyGlobalIntEnable;
 367              		.loc 1 155 0
 368              	@ 155 ".\main.c" 1
 369 0004 62B6     		CPSIE   i
 370              	@ 0 "" 2
 156:.\main.c      **** 
 157:.\main.c      ****     /* Start BLE stack and register the event callback function.*/
 158:.\main.c      ****     CyBle_Start(GeneralEventHandler);
 371              		.loc 1 158 0
 372              		.code	16
 373 0006 034B     		ldr	r3, .L26
 374 0008 181C     		mov	r0, r3
 375 000a FFF7FEFF 		bl	CyBle_Start
 159:.\main.c      **** }
 376              		.loc 1 159 0
 377 000e BD46     		mov	sp, r7
 378              		@ sp needed
 379 0010 80BD     		pop	{r7, pc}
 380              	.L27:
 381 0012 C046     		.align	2
 382              	.L26:
 383 0014 00000000 		.word	GeneralEventHandler
 384              		.cfi_endproc
 385              	.LFE38:
 386              		.size	InitializeSystem, .-InitializeSystem
 387              		.text
 388              	.Letext0:
 389              		.file 2 "Generated_Source\\PSoC4/cytypes.h"
 390              		.file 3 "./DataSet.h"
 391              		.file 4 "./main.h"
 392              		.file 5 "Generated_Source\\PSoC4/BLE_Stack.h"