ARM GAS  C:\Users\Kevin\AppData\Local\Temp\cc0Ulgoi.s 			page 1


   1              		.cpu cortex-m0
   2              		.fpu softvfp
   3              		.eabi_attribute 20, 1
   4              		.eabi_attribute 21, 1
   5              		.eabi_attribute 23, 3
   6              		.eabi_attribute 24, 1
   7              		.eabi_attribute 25, 1
   8              		.eabi_attribute 26, 1
   9              		.eabi_attribute 30, 6
  10              		.eabi_attribute 34, 0
  11              		.eabi_attribute 18, 4
  12              		.code	16
  13              		.file	"WriteUserSFlash.c"
  14              		.text
  15              	.Ltext0:
  16              		.cfi_sections	.debug_frame
  17              		.comm	servoTimes,22,4
  18              		.comm	servo1Positions,22,4
  19              		.comm	DataSet,52,4
  20              		.comm	time_10ms,4,4
  21              		.comm	flight_fase,1,1
  22              		.comm	timeStep,4,4
  23              		.section	.text.ReadArraySFlash,"ax",%progbits
  24              		.align	2
  25              		.global	ReadArraySFlash
  26              		.code	16
  27              		.thumb_func
  28              		.type	ReadArraySFlash, %function
  29              	ReadArraySFlash:
  30              	.LFB35:
  31              		.file 1 ".\\WriteUserSFlash.c"
   1:.\WriteUserSFlash.c **** /*******************************************************************************
   2:.\WriteUserSFlash.c **** * File Name: WriteUserSFlash.c
   3:.\WriteUserSFlash.c **** *
   4:.\WriteUserSFlash.c **** * Version: 1.0
   5:.\WriteUserSFlash.c **** *
   6:.\WriteUserSFlash.c **** * Description:
   7:.\WriteUserSFlash.c **** *  This file contains the source code for User SFlash Write API.
   8:.\WriteUserSFlash.c **** *
   9:.\WriteUserSFlash.c **** * Owner:
  10:.\WriteUserSFlash.c **** *  sey@cypress.com, kris@cypress.com
  11:.\WriteUserSFlash.c **** *
  12:.\WriteUserSFlash.c **** * Hardware Dependency:
  13:.\WriteUserSFlash.c **** *  1. PSoC 4 BLE device
  14:.\WriteUserSFlash.c **** *
  15:.\WriteUserSFlash.c **** * Code Tested With:
  16:.\WriteUserSFlash.c **** *  1. PSoC Creator 3.1 SP1
  17:.\WriteUserSFlash.c **** *  2. ARM GCC 4.8.4
  18:.\WriteUserSFlash.c **** *
  19:.\WriteUserSFlash.c **** ********************************************************************************
  20:.\WriteUserSFlash.c **** * Copyright 2015, Cypress Semiconductor Corporation.  All rights reserved.
  21:.\WriteUserSFlash.c **** * You may use this file only in accordance with the license, terms, conditions,
  22:.\WriteUserSFlash.c **** * disclaimers, and limitations in the end user license agreement accompanying
  23:.\WriteUserSFlash.c **** * the software package with which this file was provided.
  24:.\WriteUserSFlash.c **** *******************************************************************************/
  25:.\WriteUserSFlash.c **** 
  26:.\WriteUserSFlash.c **** #include <Project.h>
ARM GAS  C:\Users\Kevin\AppData\Local\Temp\cc0Ulgoi.s 			page 2


  27:.\WriteUserSFlash.c **** #include <WriteUserSFlash.h>
  28:.\WriteUserSFlash.c **** #include <main.h>
  29:.\WriteUserSFlash.c **** 
  30:.\WriteUserSFlash.c **** #if defined (__GNUC__)
  31:.\WriteUserSFlash.c **** #pragma GCC optimize ("O0")
  32:.\WriteUserSFlash.c **** #endif /* End of #if defined (__GNUC__) */
  33:.\WriteUserSFlash.c **** 
  34:.\WriteUserSFlash.c **** /*******************************************************************************
  35:.\WriteUserSFlash.c **** * Function Name: ReadArraySFlash
  36:.\WriteUserSFlash.c **** ********************************************************************************
  37:.\WriteUserSFlash.c **** * Summary:
  38:.\WriteUserSFlash.c **** *        This routine reads an array of bytes (uint8) from SFlash memory, ensure 
  39:.\WriteUserSFlash.c **** *        a pointer to is provided to which data should be written.
  40:.\WriteUserSFlash.c **** *
  41:.\WriteUserSFlash.c **** * Parameters:
  42:.\WriteUserSFlash.c **** *  * data - Pointer to array of bytes to be read
  43:.\WriteUserSFlash.c **** *  len - Length of array
  44:.\WriteUserSFlash.c **** *
  45:.\WriteUserSFlash.c **** *******************************************************************************/    
  46:.\WriteUserSFlash.c **** void ReadArraySFlash(uint8 * data, uint16 len)
  47:.\WriteUserSFlash.c **** {   
  32              		.loc 1 47 0
  33              		.cfi_startproc
  34 0000 80B5     		push	{r7, lr}
  35              		.cfi_def_cfa_offset 8
  36              		.cfi_offset 7, -8
  37              		.cfi_offset 14, -4
  38 0002 84B0     		sub	sp, sp, #16
  39              		.cfi_def_cfa_offset 24
  40 0004 00AF     		add	r7, sp, #0
  41              		.cfi_def_cfa_register 7
  42 0006 7860     		str	r0, [r7, #4]
  43 0008 0A1C     		mov	r2, r1
  44 000a BB1C     		add	r3, r7, #2
  45 000c 1A80     		strh	r2, [r3]
  48:.\WriteUserSFlash.c ****     uint8 *sflashPtr;
  49:.\WriteUserSFlash.c ****     sflashPtr = (uint8 *)USER_SFLASH_BASE_ADDRESS; /* User SFlash read is direct memory read using 
  46              		.loc 1 49 0
  47 000e 114B     		ldr	r3, .L4
  48 0010 FB60     		str	r3, [r7, #12]
  50:.\WriteUserSFlash.c ****     uint16 dataIndex;
  51:.\WriteUserSFlash.c ****     for(dataIndex = 0; dataIndex < len; dataIndex++)
  49              		.loc 1 51 0
  50 0012 0A23     		mov	r3, #10
  51 0014 FB18     		add	r3, r7, r3
  52 0016 0022     		mov	r2, #0
  53 0018 1A80     		strh	r2, [r3]
  54 001a 11E0     		b	.L2
  55              	.L3:
  52:.\WriteUserSFlash.c ****     {
  53:.\WriteUserSFlash.c ****         data[dataIndex] = *sflashPtr;
  56              		.loc 1 53 0 discriminator 3
  57 001c 0A23     		mov	r3, #10
  58 001e FB18     		add	r3, r7, r3
  59 0020 1B88     		ldrh	r3, [r3]
  60 0022 7A68     		ldr	r2, [r7, #4]
  61 0024 D318     		add	r3, r2, r3
ARM GAS  C:\Users\Kevin\AppData\Local\Temp\cc0Ulgoi.s 			page 3


  62 0026 FA68     		ldr	r2, [r7, #12]
  63 0028 1278     		ldrb	r2, [r2]
  64 002a 1A70     		strb	r2, [r3]
  54:.\WriteUserSFlash.c ****         sflashPtr++;
  65              		.loc 1 54 0 discriminator 3
  66 002c FB68     		ldr	r3, [r7, #12]
  67 002e 0133     		add	r3, r3, #1
  68 0030 FB60     		str	r3, [r7, #12]
  51:.\WriteUserSFlash.c ****     {
  69              		.loc 1 51 0 discriminator 3
  70 0032 0A23     		mov	r3, #10
  71 0034 FB18     		add	r3, r7, r3
  72 0036 1A88     		ldrh	r2, [r3]
  73 0038 0A23     		mov	r3, #10
  74 003a FB18     		add	r3, r7, r3
  75 003c 0132     		add	r2, r2, #1
  76 003e 1A80     		strh	r2, [r3]
  77              	.L2:
  51:.\WriteUserSFlash.c ****     {
  78              		.loc 1 51 0 is_stmt 0 discriminator 1
  79 0040 0A23     		mov	r3, #10
  80 0042 FA18     		add	r2, r7, r3
  81 0044 BB1C     		add	r3, r7, #2
  82 0046 1288     		ldrh	r2, [r2]
  83 0048 1B88     		ldrh	r3, [r3]
  84 004a 9A42     		cmp	r2, r3
  85 004c E6D3     		bcc	.L3
  55:.\WriteUserSFlash.c ****     }
  56:.\WriteUserSFlash.c **** }
  86              		.loc 1 56 0 is_stmt 1
  87 004e BD46     		mov	sp, r7
  88 0050 04B0     		add	sp, sp, #16
  89              		@ sp needed
  90 0052 80BD     		pop	{r7, pc}
  91              	.L5:
  92              		.align	2
  93              	.L4:
  94 0054 00F2FF0F 		.word	268431872
  95              		.cfi_endproc
  96              	.LFE35:
  97              		.size	ReadArraySFlash, .-ReadArraySFlash
  98              		.section	.text.WriteArraySFlash,"ax",%progbits
  99              		.align	2
 100              		.global	WriteArraySFlash
 101              		.code	16
 102              		.thumb_func
 103              		.type	WriteArraySFlash, %function
 104              	WriteArraySFlash:
 105              	.LFB36:
  57:.\WriteUserSFlash.c **** 
  58:.\WriteUserSFlash.c **** /*******************************************************************************
  59:.\WriteUserSFlash.c **** * Function Name: WriteArraySFlash
  60:.\WriteUserSFlash.c **** ********************************************************************************
  61:.\WriteUserSFlash.c **** * Summary:
  62:.\WriteUserSFlash.c **** *        This routine writes an array of bytes (uint8) to SFlash memory using  
  63:.\WriteUserSFlash.c **** *        WriteUserSFlashRow method.
  64:.\WriteUserSFlash.c **** *
ARM GAS  C:\Users\Kevin\AppData\Local\Temp\cc0Ulgoi.s 			page 4


  65:.\WriteUserSFlash.c **** * Parameters:
  66:.\WriteUserSFlash.c **** *  data[] - Array of bytes to be written
  67:.\WriteUserSFlash.c **** *  len - Length of array
  68:.\WriteUserSFlash.c **** *
  69:.\WriteUserSFlash.c **** *******************************************************************************/    
  70:.\WriteUserSFlash.c **** void WriteArraySFlash(uint8 data[], uint16 len)
  71:.\WriteUserSFlash.c **** {
 106              		.loc 1 71 0
 107              		.cfi_startproc
 108 0000 80B5     		push	{r7, lr}
 109              		.cfi_def_cfa_offset 8
 110              		.cfi_offset 7, -8
 111              		.cfi_offset 14, -4
 112 0002 A4B0     		sub	sp, sp, #144
 113              		.cfi_def_cfa_offset 152
 114 0004 00AF     		add	r7, sp, #0
 115              		.cfi_def_cfa_register 7
 116 0006 7860     		str	r0, [r7, #4]
 117 0008 0A1C     		mov	r2, r1
 118 000a BB1C     		add	r3, r7, #2
 119 000c 1A80     		strh	r2, [r3]
  72:.\WriteUserSFlash.c ****     uint32 SFlash[USER_SFLASH_ROW_SIZE/4u];
  73:.\WriteUserSFlash.c ****     uint16 dataIndex;
  74:.\WriteUserSFlash.c ****     for(dataIndex=0; dataIndex<len/4u; dataIndex++)
 120              		.loc 1 74 0
 121 000e 8E23     		mov	r3, #142
 122 0010 FB18     		add	r3, r7, r3
 123 0012 0022     		mov	r2, #0
 124 0014 1A80     		strh	r2, [r3]
 125 0016 35E0     		b	.L7
 126              	.L8:
  75:.\WriteUserSFlash.c ****     {
  76:.\WriteUserSFlash.c ****         SFlash[dataIndex] = data[dataIndex*4u+0u]     | /* Fill the user SFlash write buffer with k
 127              		.loc 1 76 0 discriminator 3
 128 0018 8E23     		mov	r3, #142
 129 001a FB18     		add	r3, r7, r3
 130 001c 1A88     		ldrh	r2, [r3]
 131 001e 8E23     		mov	r3, #142
 132 0020 FB18     		add	r3, r7, r3
 133 0022 1B88     		ldrh	r3, [r3]
 134 0024 9B00     		lsl	r3, r3, #2
 135 0026 7968     		ldr	r1, [r7, #4]
 136 0028 CB18     		add	r3, r1, r3
 137 002a 1B78     		ldrb	r3, [r3]
 138 002c 181C     		mov	r0, r3
  77:.\WriteUserSFlash.c ****                            (data[dataIndex*4u+1u]<<8u) | /* Convert 8bit DataSet to 32bit SFlash */
 139              		.loc 1 77 0 discriminator 3
 140 002e 8E23     		mov	r3, #142
 141 0030 FB18     		add	r3, r7, r3
 142 0032 1B88     		ldrh	r3, [r3]
 143 0034 9B00     		lsl	r3, r3, #2
 144 0036 0133     		add	r3, r3, #1
 145 0038 7968     		ldr	r1, [r7, #4]
 146 003a CB18     		add	r3, r1, r3
 147 003c 1B78     		ldrb	r3, [r3]
 148 003e 1B02     		lsl	r3, r3, #8
  76:.\WriteUserSFlash.c ****                            (data[dataIndex*4u+1u]<<8u) | /* Convert 8bit DataSet to 32bit SFlash */
ARM GAS  C:\Users\Kevin\AppData\Local\Temp\cc0Ulgoi.s 			page 5


 149              		.loc 1 76 0 discriminator 3
 150 0040 011C     		mov	r1, r0
 151 0042 1943     		orr	r1, r3
  78:.\WriteUserSFlash.c ****                            (data[dataIndex*4u+2u]<<16u)|
 152              		.loc 1 78 0 discriminator 3
 153 0044 8E23     		mov	r3, #142
 154 0046 FB18     		add	r3, r7, r3
 155 0048 1B88     		ldrh	r3, [r3]
 156 004a 9B00     		lsl	r3, r3, #2
 157 004c 0233     		add	r3, r3, #2
 158 004e 7868     		ldr	r0, [r7, #4]
 159 0050 C318     		add	r3, r0, r3
 160 0052 1B78     		ldrb	r3, [r3]
 161 0054 1B04     		lsl	r3, r3, #16
  77:.\WriteUserSFlash.c ****                            (data[dataIndex*4u+1u]<<8u) | /* Convert 8bit DataSet to 32bit SFlash */
 162              		.loc 1 77 0 discriminator 3
 163 0056 1943     		orr	r1, r3
  79:.\WriteUserSFlash.c ****                            (data[dataIndex*4u+3u]<<24u);
 164              		.loc 1 79 0 discriminator 3
 165 0058 8E23     		mov	r3, #142
 166 005a FB18     		add	r3, r7, r3
 167 005c 1B88     		ldrh	r3, [r3]
 168 005e 9B00     		lsl	r3, r3, #2
 169 0060 0333     		add	r3, r3, #3
 170 0062 7868     		ldr	r0, [r7, #4]
 171 0064 C318     		add	r3, r0, r3
 172 0066 1B78     		ldrb	r3, [r3]
 173 0068 1B06     		lsl	r3, r3, #24
  78:.\WriteUserSFlash.c ****                            (data[dataIndex*4u+2u]<<16u)|
 174              		.loc 1 78 0 discriminator 3
 175 006a 0B43     		orr	r3, r1
  76:.\WriteUserSFlash.c ****                            (data[dataIndex*4u+1u]<<8u) | /* Convert 8bit DataSet to 32bit SFlash */
 176              		.loc 1 76 0 discriminator 3
 177 006c 191C     		mov	r1, r3
 178 006e 0C23     		mov	r3, #12
 179 0070 FB18     		add	r3, r7, r3
 180 0072 9200     		lsl	r2, r2, #2
 181 0074 D150     		str	r1, [r2, r3]
  74:.\WriteUserSFlash.c ****     {
 182              		.loc 1 74 0 discriminator 3
 183 0076 8E23     		mov	r3, #142
 184 0078 FB18     		add	r3, r7, r3
 185 007a 1A88     		ldrh	r2, [r3]
 186 007c 8E23     		mov	r3, #142
 187 007e FB18     		add	r3, r7, r3
 188 0080 0132     		add	r2, r2, #1
 189 0082 1A80     		strh	r2, [r3]
 190              	.L7:
  74:.\WriteUserSFlash.c ****     {
 191              		.loc 1 74 0 is_stmt 0 discriminator 1
 192 0084 BB1C     		add	r3, r7, #2
 193 0086 1B88     		ldrh	r3, [r3]
 194 0088 9B08     		lsr	r3, r3, #2
 195 008a 9BB2     		uxth	r3, r3
 196 008c 8E22     		mov	r2, #142
 197 008e BA18     		add	r2, r7, r2
 198 0090 1288     		ldrh	r2, [r2]
ARM GAS  C:\Users\Kevin\AppData\Local\Temp\cc0Ulgoi.s 			page 6


 199 0092 9A42     		cmp	r2, r3
 200 0094 C0D3     		bcc	.L8
  80:.\WriteUserSFlash.c ****     }
  81:.\WriteUserSFlash.c ****     WriteUserSFlashRow(0, &SFlash[0]); // Write to row 0
 201              		.loc 1 81 0 is_stmt 1
 202 0096 0C23     		mov	r3, #12
 203 0098 FB18     		add	r3, r7, r3
 204 009a 0020     		mov	r0, #0
 205 009c 191C     		mov	r1, r3
 206 009e FFF7FEFF 		bl	WriteUserSFlashRow
  82:.\WriteUserSFlash.c **** }
 207              		.loc 1 82 0
 208 00a2 BD46     		mov	sp, r7
 209 00a4 24B0     		add	sp, sp, #144
 210              		@ sp needed
 211 00a6 80BD     		pop	{r7, pc}
 212              		.cfi_endproc
 213              	.LFE36:
 214              		.size	WriteArraySFlash, .-WriteArraySFlash
 215              		.section	.text.WriteUserSFlashRow,"ax",%progbits
 216              		.align	2
 217              		.global	WriteUserSFlashRow
 218              		.code	16
 219              		.thumb_func
 220              		.type	WriteUserSFlashRow, %function
 221              	WriteUserSFlashRow:
 222              	.LFB37:
  83:.\WriteUserSFlash.c **** 
  84:.\WriteUserSFlash.c **** /*******************************************************************************
  85:.\WriteUserSFlash.c **** * Function Name: WriteUserSFlashRow
  86:.\WriteUserSFlash.c **** ********************************************************************************
  87:.\WriteUserSFlash.c **** * Summary:
  88:.\WriteUserSFlash.c **** *        This routine calls the PSoC 4 BLE device supervisory ROM APIs to update
  89:.\WriteUserSFlash.c **** * the user configuration area of Supervisory Flash (SFlash).  
  90:.\WriteUserSFlash.c **** *
  91:.\WriteUserSFlash.c **** * Parameters:
  92:.\WriteUserSFlash.c **** *  userRowNUmber - User config SFlash row number to which data is to be written
  93:.\WriteUserSFlash.c **** *  dataPointer - Pointer to the data to be written. This API writes one row of
  94:.\WriteUserSFlash.c **** *                user config SFlash row at a time.
  95:.\WriteUserSFlash.c **** *
  96:.\WriteUserSFlash.c **** * Return:
  97:.\WriteUserSFlash.c **** *  uint32 - state of the user config SFlash write operation.
  98:.\WriteUserSFlash.c **** *
  99:.\WriteUserSFlash.c **** *******************************************************************************/    
 100:.\WriteUserSFlash.c **** uint32 WriteUserSFlashRow(uint8 userRowNUmber, uint32 *dataPointer)
 101:.\WriteUserSFlash.c **** {
 223              		.loc 1 101 0
 224              		.cfi_startproc
 225 0000 80B5     		push	{r7, lr}
 226              		.cfi_def_cfa_offset 8
 227              		.cfi_offset 7, -8
 228              		.cfi_offset 14, -4
 229 0002 ACB0     		sub	sp, sp, #176
 230              		.cfi_def_cfa_offset 184
 231 0004 00AF     		add	r7, sp, #0
 232              		.cfi_def_cfa_register 7
 233 0006 021C     		mov	r2, r0
ARM GAS  C:\Users\Kevin\AppData\Local\Temp\cc0Ulgoi.s 			page 7


 234 0008 3960     		str	r1, [r7]
 235 000a FB1D     		add	r3, r7, #7
 236 000c 1A70     		strb	r2, [r3]
 102:.\WriteUserSFlash.c ****     uint8 localCount;
 103:.\WriteUserSFlash.c **** 	volatile uint32 retValue=0;
 237              		.loc 1 103 0
 238 000e 0023     		mov	r3, #0
 239 0010 A822     		mov	r2, #168
 240 0012 BA18     		add	r2, r7, r2
 241 0014 1360     		str	r3, [r2]
 104:.\WriteUserSFlash.c **** 	volatile uint32 cmdDataBuffer[(CY_FLASH_SIZEOF_ROW/4) + 2];
 105:.\WriteUserSFlash.c **** 	volatile uint32 reg1,reg2,reg3,reg4,reg5,reg6;
 106:.\WriteUserSFlash.c **** 	
 107:.\WriteUserSFlash.c **** 	/* Store the clock settings temporarily */
 108:.\WriteUserSFlash.c ****     reg1 =	CY_GET_XTND_REG32((void CYFAR *)(CYREG_CLK_SELECT));
 242              		.loc 1 108 0
 243 0016 3A4B     		ldr	r3, .L13
 244 0018 1B68     		ldr	r3, [r3]
 245 001a FB61     		str	r3, [r7, #28]
 109:.\WriteUserSFlash.c ****     reg2 =  CY_GET_XTND_REG32((void CYFAR *)(CYREG_CLK_IMO_CONFIG));
 246              		.loc 1 109 0
 247 001c 394B     		ldr	r3, .L13+4
 248 001e 1B68     		ldr	r3, [r3]
 249 0020 BB61     		str	r3, [r7, #24]
 110:.\WriteUserSFlash.c ****     reg3 =  CY_GET_XTND_REG32((void CYFAR *)(CYREG_PWR_BG_TRIM4));
 250              		.loc 1 110 0
 251 0022 394B     		ldr	r3, .L13+8
 252 0024 1B68     		ldr	r3, [r3]
 253 0026 7B61     		str	r3, [r7, #20]
 111:.\WriteUserSFlash.c ****     reg4 =  CY_GET_XTND_REG32((void CYFAR *)(CYREG_PWR_BG_TRIM5));
 254              		.loc 1 111 0
 255 0028 384B     		ldr	r3, .L13+12
 256 002a 1B68     		ldr	r3, [r3]
 257 002c 3B61     		str	r3, [r7, #16]
 112:.\WriteUserSFlash.c ****     reg5 =  CY_GET_XTND_REG32((void CYFAR *)(CYREG_CLK_IMO_TRIM1));
 258              		.loc 1 112 0
 259 002e 384B     		ldr	r3, .L13+16
 260 0030 1B68     		ldr	r3, [r3]
 261 0032 FB60     		str	r3, [r7, #12]
 113:.\WriteUserSFlash.c ****     reg6 =  CY_GET_XTND_REG32((void CYFAR *)(CYREG_CLK_IMO_TRIM2));
 262              		.loc 1 113 0
 263 0034 374B     		ldr	r3, .L13+20
 264 0036 1B68     		ldr	r3, [r3]
 265 0038 BB60     		str	r3, [r7, #8]
 114:.\WriteUserSFlash.c **** 	
 115:.\WriteUserSFlash.c **** 	/* Initialize the clock necessary for flash programming */
 116:.\WriteUserSFlash.c **** 	CY_SET_REG32(CYREG_CPUSS_SYSARG, 0x0000e8b6);
 266              		.loc 1 116 0
 267 003a 374B     		ldr	r3, .L13+24
 268 003c 374A     		ldr	r2, .L13+28
 269 003e 1A60     		str	r2, [r3]
 117:.\WriteUserSFlash.c **** 	CY_SET_REG32(CYREG_CPUSS_SYSREQ, 0x80000015);
 270              		.loc 1 117 0
 271 0040 374B     		ldr	r3, .L13+32
 272 0042 384A     		ldr	r2, .L13+36
 273 0044 1A60     		str	r2, [r3]
 118:.\WriteUserSFlash.c **** 	
ARM GAS  C:\Users\Kevin\AppData\Local\Temp\cc0Ulgoi.s 			page 8


 119:.\WriteUserSFlash.c **** 	/******* Initialize SRAM parameters for the LOAD FLASH command ******/
 120:.\WriteUserSFlash.c **** 	/* byte 3 (i.e. 00) is the Macro_select */
 121:.\WriteUserSFlash.c **** 	/* byte 2 (i.e. 00) is the Start addr of page latch */
 122:.\WriteUserSFlash.c **** 	/* byte 1 (i.e. d7) is the key 2  */
 123:.\WriteUserSFlash.c **** 	/* byte 0 (i.e. b6) is the key 1  */
 124:.\WriteUserSFlash.c ****   	cmdDataBuffer[0]=0x0000d7b6;
 274              		.loc 1 124 0
 275 0046 2023     		mov	r3, #32
 276 0048 FB18     		add	r3, r7, r3
 277 004a 374A     		ldr	r2, .L13+40
 278 004c 1A60     		str	r2, [r3]
 125:.\WriteUserSFlash.c **** 	
 126:.\WriteUserSFlash.c **** 	/****** Initialize SRAM parameters for the LOAD FLASH command ******/
 127:.\WriteUserSFlash.c **** 	/* byte 3,2 and 1 are null */
 128:.\WriteUserSFlash.c **** 	/* byte 0 (i.e. 7F) is the number of bytes to be written */
 129:.\WriteUserSFlash.c **** 	cmdDataBuffer[1]=0x0000007F;	 
 279              		.loc 1 129 0
 280 004e 2023     		mov	r3, #32
 281 0050 FB18     		add	r3, r7, r3
 282 0052 7F22     		mov	r2, #127
 283 0054 5A60     		str	r2, [r3, #4]
 130:.\WriteUserSFlash.c ****     
 131:.\WriteUserSFlash.c **** 	/* Initialize the SRAM buffer with data bytes */
 132:.\WriteUserSFlash.c ****     for(localCount = 0; localCount < (CY_FLASH_SIZEOF_ROW/4); localCount++)    
 284              		.loc 1 132 0
 285 0056 AF23     		mov	r3, #175
 286 0058 FB18     		add	r3, r7, r3
 287 005a 0022     		mov	r2, #0
 288 005c 1A70     		strb	r2, [r3]
 289 005e 15E0     		b	.L10
 290              	.L11:
 133:.\WriteUserSFlash.c **** 	{
 134:.\WriteUserSFlash.c **** 		cmdDataBuffer[localCount + 2] = dataPointer[localCount]; 
 291              		.loc 1 134 0 discriminator 3
 292 0060 AF23     		mov	r3, #175
 293 0062 FB18     		add	r3, r7, r3
 294 0064 1B78     		ldrb	r3, [r3]
 295 0066 9A1C     		add	r2, r3, #2
 296 0068 AF23     		mov	r3, #175
 297 006a FB18     		add	r3, r7, r3
 298 006c 1B78     		ldrb	r3, [r3]
 299 006e 9B00     		lsl	r3, r3, #2
 300 0070 3968     		ldr	r1, [r7]
 301 0072 CB18     		add	r3, r1, r3
 302 0074 1968     		ldr	r1, [r3]
 303 0076 2023     		mov	r3, #32
 304 0078 FB18     		add	r3, r7, r3
 305 007a 9200     		lsl	r2, r2, #2
 306 007c D150     		str	r1, [r2, r3]
 132:.\WriteUserSFlash.c **** 	{
 307              		.loc 1 132 0 discriminator 3
 308 007e AF23     		mov	r3, #175
 309 0080 FB18     		add	r3, r7, r3
 310 0082 1A78     		ldrb	r2, [r3]
 311 0084 AF23     		mov	r3, #175
 312 0086 FB18     		add	r3, r7, r3
 313 0088 0132     		add	r2, r2, #1
ARM GAS  C:\Users\Kevin\AppData\Local\Temp\cc0Ulgoi.s 			page 9


 314 008a 1A70     		strb	r2, [r3]
 315              	.L10:
 132:.\WriteUserSFlash.c **** 	{
 316              		.loc 1 132 0 is_stmt 0 discriminator 1
 317 008c AF23     		mov	r3, #175
 318 008e FB18     		add	r3, r7, r3
 319 0090 1B78     		ldrb	r3, [r3]
 320 0092 1F2B     		cmp	r3, #31
 321 0094 E4D9     		bls	.L11
 135:.\WriteUserSFlash.c **** 	}
 136:.\WriteUserSFlash.c **** 	
 137:.\WriteUserSFlash.c **** 	/* Write the following to registers to execute a LOAD FLASH bytes */
 138:.\WriteUserSFlash.c **** 	CY_SET_REG32(CYREG_CPUSS_SYSARG, &cmdDataBuffer[0]);
 322              		.loc 1 138 0 is_stmt 1
 323 0096 204B     		ldr	r3, .L13+24
 324 0098 2022     		mov	r2, #32
 325 009a BA18     		add	r2, r7, r2
 326 009c 1A60     		str	r2, [r3]
 139:.\WriteUserSFlash.c **** 	CY_SET_REG32(CYREG_CPUSS_SYSREQ, LOAD_FLASH);
 327              		.loc 1 139 0
 328 009e 204B     		ldr	r3, .L13+32
 329 00a0 224A     		ldr	r2, .L13+44
 330 00a2 1A60     		str	r2, [r3]
 140:.\WriteUserSFlash.c **** 	
 141:.\WriteUserSFlash.c ****     /****** Initialize SRAM parameters for the WRITE ROW command ******/
 142:.\WriteUserSFlash.c **** 	/* byte 3 & 2 are null */
 143:.\WriteUserSFlash.c **** 	/* byte 1 (i.e. 0xeb) is the key 2  */
 144:.\WriteUserSFlash.c **** 	/* byte 0 (i.e. 0xb6) is the key 1  */
 145:.\WriteUserSFlash.c **** 	cmdDataBuffer[0] = 0x0000ebb6;
 331              		.loc 1 145 0
 332 00a4 2023     		mov	r3, #32
 333 00a6 FB18     		add	r3, r7, r3
 334 00a8 214A     		ldr	r2, .L13+48
 335 00aa 1A60     		str	r2, [r3]
 146:.\WriteUserSFlash.c ****     
 147:.\WriteUserSFlash.c **** 	/* byte 7,6 and 5 are null */
 148:.\WriteUserSFlash.c **** 	/* byte 4 is desired SFlash user row 
 149:.\WriteUserSFlash.c **** 	 * Allowed values 0 - row 4
 150:.\WriteUserSFlash.c **** 	                  1 - row 5 
 151:.\WriteUserSFlash.c **** 					  2 - row 6
 152:.\WriteUserSFlash.c **** 					  3 - row 7 */
 153:.\WriteUserSFlash.c **** 	cmdDataBuffer[1] = (uint32) userRowNUmber;
 336              		.loc 1 153 0
 337 00ac FB1D     		add	r3, r7, #7
 338 00ae 1A78     		ldrb	r2, [r3]
 339 00b0 2023     		mov	r3, #32
 340 00b2 FB18     		add	r3, r7, r3
 341 00b4 5A60     		str	r2, [r3, #4]
 154:.\WriteUserSFlash.c **** 	
 155:.\WriteUserSFlash.c **** 	/* Write the following to registers to execute a WRITE USER SFlash ROW command */
 156:.\WriteUserSFlash.c **** 	CY_SET_REG32(CYREG_CPUSS_SYSARG, &cmdDataBuffer[0]);
 342              		.loc 1 156 0
 343 00b6 184B     		ldr	r3, .L13+24
 344 00b8 2022     		mov	r2, #32
 345 00ba BA18     		add	r2, r7, r2
 346 00bc 1A60     		str	r2, [r3]
 157:.\WriteUserSFlash.c **** 	CY_SET_REG32(CYREG_CPUSS_SYSREQ, WRITE_USER_SFLASH_ROW);
ARM GAS  C:\Users\Kevin\AppData\Local\Temp\cc0Ulgoi.s 			page 10


 347              		.loc 1 157 0
 348 00be 184B     		ldr	r3, .L13+32
 349 00c0 1C4A     		ldr	r2, .L13+52
 350 00c2 1A60     		str	r2, [r3]
 158:.\WriteUserSFlash.c ****     
 159:.\WriteUserSFlash.c **** 	/* Read back SYSARG for the result. 0xA0000000 = SUCCESS; */
 160:.\WriteUserSFlash.c **** 	retValue = CY_GET_REG32(CYREG_CPUSS_SYSARG);
 351              		.loc 1 160 0
 352 00c4 144B     		ldr	r3, .L13+24
 353 00c6 1B68     		ldr	r3, [r3]
 354 00c8 A822     		mov	r2, #168
 355 00ca BA18     		add	r2, r7, r2
 356 00cc 1360     		str	r3, [r2]
 161:.\WriteUserSFlash.c **** 	
 162:.\WriteUserSFlash.c **** 	/* Restore the clock settings after the flash programming is done */
 163:.\WriteUserSFlash.c ****     CY_SET_XTND_REG32((void CYFAR *)(CYREG_CLK_SELECT),reg1);
 357              		.loc 1 163 0
 358 00ce 0C4B     		ldr	r3, .L13
 359 00d0 FA69     		ldr	r2, [r7, #28]
 360 00d2 1A60     		str	r2, [r3]
 164:.\WriteUserSFlash.c ****     CY_SET_XTND_REG32((void CYFAR *)(CYREG_CLK_IMO_CONFIG),reg2);
 361              		.loc 1 164 0
 362 00d4 0B4B     		ldr	r3, .L13+4
 363 00d6 BA69     		ldr	r2, [r7, #24]
 364 00d8 1A60     		str	r2, [r3]
 165:.\WriteUserSFlash.c ****     CY_SET_XTND_REG32((void CYFAR *)(CYREG_PWR_BG_TRIM4),reg3);
 365              		.loc 1 165 0
 366 00da 0B4B     		ldr	r3, .L13+8
 367 00dc 7A69     		ldr	r2, [r7, #20]
 368 00de 1A60     		str	r2, [r3]
 166:.\WriteUserSFlash.c ****     CY_SET_XTND_REG32((void CYFAR *)(CYREG_PWR_BG_TRIM5),reg4);
 369              		.loc 1 166 0
 370 00e0 0A4B     		ldr	r3, .L13+12
 371 00e2 3A69     		ldr	r2, [r7, #16]
 372 00e4 1A60     		str	r2, [r3]
 167:.\WriteUserSFlash.c ****     CY_SET_XTND_REG32((void CYFAR *)(CYREG_CLK_IMO_TRIM1),reg5);
 373              		.loc 1 167 0
 374 00e6 0A4B     		ldr	r3, .L13+16
 375 00e8 FA68     		ldr	r2, [r7, #12]
 376 00ea 1A60     		str	r2, [r3]
 168:.\WriteUserSFlash.c ****     CY_SET_XTND_REG32((void CYFAR *)(CYREG_CLK_IMO_TRIM2),reg6);  
 377              		.loc 1 168 0
 378 00ec 094B     		ldr	r3, .L13+20
 379 00ee BA68     		ldr	r2, [r7, #8]
 380 00f0 1A60     		str	r2, [r3]
 169:.\WriteUserSFlash.c **** 	
 170:.\WriteUserSFlash.c **** 	return retValue;
 381              		.loc 1 170 0
 382 00f2 A823     		mov	r3, #168
 383 00f4 FB18     		add	r3, r7, r3
 384 00f6 1B68     		ldr	r3, [r3]
 171:.\WriteUserSFlash.c **** }
 385              		.loc 1 171 0
 386 00f8 181C     		mov	r0, r3
 387 00fa BD46     		mov	sp, r7
 388 00fc 2CB0     		add	sp, sp, #176
 389              		@ sp needed
ARM GAS  C:\Users\Kevin\AppData\Local\Temp\cc0Ulgoi.s 			page 11


 390 00fe 80BD     		pop	{r7, pc}
 391              	.L14:
 392              		.align	2
 393              	.L13:
 394 0100 00010B40 		.word	1074462976
 395 0104 08010B40 		.word	1074462984
 396 0108 1CFF0B40 		.word	1074528028
 397 010c 20FF0B40 		.word	1074528032
 398 0110 28FF0B40 		.word	1074528040
 399 0114 2CFF0B40 		.word	1074528044
 400 0118 08001040 		.word	1074790408
 401 011c B6E80000 		.word	59574
 402 0120 04001040 		.word	1074790404
 403 0124 15000080 		.word	-2147483627
 404 0128 B6D70000 		.word	55222
 405 012c 04000080 		.word	-2147483644
 406 0130 B6EB0000 		.word	60342
 407 0134 18000080 		.word	-2147483624
 408              		.cfi_endproc
 409              	.LFE37:
 410              		.size	WriteUserSFlashRow, .-WriteUserSFlashRow
 411              		.text
 412              	.Letext0:
 413              		.file 2 "Generated_Source\\PSoC4/cytypes.h"
 414              		.file 3 "./DataSet.h"
 415              		.file 4 "./main.h"
 416              		.file 5 "Generated_Source\\PSoC4/BLE_Stack.h"