ARM GAS  C:\Users\Kevin\AppData\Local\Temp\ccOeHuCA.s 			page 1


   1              		.cpu cortex-m0
   2              		.fpu softvfp
   3              		.eabi_attribute 20, 1
   4              		.eabi_attribute 21, 1
   5              		.eabi_attribute 23, 3
   6              		.eabi_attribute 24, 1
   7              		.eabi_attribute 25, 1
   8              		.eabi_attribute 26, 1
   9              		.eabi_attribute 30, 1
  10              		.eabi_attribute 34, 0
  11              		.eabi_attribute 18, 4
  12              		.code	16
  13              		.file	"WriteUserSFlash8bit.c"
  14              		.text
  15              	.Ltext0:
  16              		.cfi_sections	.debug_frame
  17              		.section	.text.WriteUserSFlashRow8bit,"ax",%progbits
  18              		.align	2
  19              		.global	WriteUserSFlashRow8bit
  20              		.code	16
  21              		.thumb_func
  22              		.type	WriteUserSFlashRow8bit, %function
  23              	WriteUserSFlashRow8bit:
  24              	.LFB35:
  25              		.file 1 ".\\WriteUserSFlash8bit.c"
   1:.\WriteUserSFlash8bit.c **** /*******************************************************************************
   2:.\WriteUserSFlash8bit.c **** * File Name: WriteUserSFlash.c
   3:.\WriteUserSFlash8bit.c **** *
   4:.\WriteUserSFlash8bit.c **** * Version: 1.0
   5:.\WriteUserSFlash8bit.c **** *
   6:.\WriteUserSFlash8bit.c **** * Description:
   7:.\WriteUserSFlash8bit.c **** *  This file contains the source code for User SFlash Write API.
   8:.\WriteUserSFlash8bit.c **** *
   9:.\WriteUserSFlash8bit.c **** * Owner:
  10:.\WriteUserSFlash8bit.c **** *  sey@cypress.com, kris@cypress.com
  11:.\WriteUserSFlash8bit.c **** *
  12:.\WriteUserSFlash8bit.c **** * Hardware Dependency:
  13:.\WriteUserSFlash8bit.c **** *  1. PSoC 4 BLE device
  14:.\WriteUserSFlash8bit.c **** *
  15:.\WriteUserSFlash8bit.c **** * Code Tested With:
  16:.\WriteUserSFlash8bit.c **** *  1. PSoC Creator 3.1 SP1
  17:.\WriteUserSFlash8bit.c **** *  2. ARM GCC 4.8.4
  18:.\WriteUserSFlash8bit.c **** *
  19:.\WriteUserSFlash8bit.c **** ********************************************************************************
  20:.\WriteUserSFlash8bit.c **** * Copyright 2015, Cypress Semiconductor Corporation.  All rights reserved.
  21:.\WriteUserSFlash8bit.c **** * You may use this file only in accordance with the license, terms, conditions,
  22:.\WriteUserSFlash8bit.c **** * disclaimers, and limitations in the end user license agreement accompanying
  23:.\WriteUserSFlash8bit.c **** * the software package with which this file was provided.
  24:.\WriteUserSFlash8bit.c **** *******************************************************************************/
  25:.\WriteUserSFlash8bit.c **** 
  26:.\WriteUserSFlash8bit.c **** #include <Project.h>
  27:.\WriteUserSFlash8bit.c **** #include <WriteUserSFlash.h>
  28:.\WriteUserSFlash8bit.c **** 
  29:.\WriteUserSFlash8bit.c **** 
  30:.\WriteUserSFlash8bit.c **** /*******************************************************************************
  31:.\WriteUserSFlash8bit.c **** * Function Name: WriteUserSFlashRow
  32:.\WriteUserSFlash8bit.c **** ********************************************************************************
ARM GAS  C:\Users\Kevin\AppData\Local\Temp\ccOeHuCA.s 			page 2


  33:.\WriteUserSFlash8bit.c **** * Summary:
  34:.\WriteUserSFlash8bit.c **** *        This routine calls the PSoC 4 BLE device supervisory ROM APIs to update
  35:.\WriteUserSFlash8bit.c **** * the user configuration area of Supervisory Flash (SFlash).  
  36:.\WriteUserSFlash8bit.c **** *
  37:.\WriteUserSFlash8bit.c **** * Parameters:
  38:.\WriteUserSFlash8bit.c **** *  userRowNUmber - User config SFlash row number to which data is to be written
  39:.\WriteUserSFlash8bit.c **** *  dataPointer - Pointer to the data to be written. This API writes one row of
  40:.\WriteUserSFlash8bit.c **** *                user config SFlash row at a time.
  41:.\WriteUserSFlash8bit.c **** *
  42:.\WriteUserSFlash8bit.c **** * Return:
  43:.\WriteUserSFlash8bit.c **** *  uint32 - state of the user config SFlash write operation.
  44:.\WriteUserSFlash8bit.c **** *
  45:.\WriteUserSFlash8bit.c **** *******************************************************************************/
  46:.\WriteUserSFlash8bit.c **** #if defined (__GNUC__)
  47:.\WriteUserSFlash8bit.c **** #pragma GCC optimize ("O0")
  48:.\WriteUserSFlash8bit.c **** #endif /* End of #if defined (__GNUC__) */
  49:.\WriteUserSFlash8bit.c **** uint32 WriteUserSFlashRow8bit(uint8 userRowNUmber, uint8 *dataPointer)
  50:.\WriteUserSFlash8bit.c **** {
  26              		.loc 1 50 0
  27              		.cfi_startproc
  28              	.LVL0:
  29 0000 80B5     		push	{r7, lr}
  30              		.cfi_def_cfa_offset 8
  31              		.cfi_offset 7, -8
  32              		.cfi_offset 14, -4
  33 0002 ACB0     		sub	sp, sp, #176
  34              		.cfi_def_cfa_offset 184
  35 0004 00AF     		add	r7, sp, #0
  36              		.cfi_def_cfa_register 7
  37 0006 021C     		mov	r2, r0
  38 0008 3960     		str	r1, [r7]
  39 000a FB1D     		add	r3, r7, #7
  40 000c 1A70     		strb	r2, [r3]
  51:.\WriteUserSFlash8bit.c ****     uint8 localCount;
  52:.\WriteUserSFlash8bit.c **** 	volatile uint32 retValue=0;
  41              		.loc 1 52 0
  42 000e 0023     		mov	r3, #0
  43 0010 A822     		mov	r2, #168
  44 0012 BA18     		add	r2, r7, r2
  45 0014 1360     		str	r3, [r2]
  53:.\WriteUserSFlash8bit.c **** 	volatile uint8 cmdDataBuffer[(CY_FLASH_SIZEOF_ROW) + 2];
  54:.\WriteUserSFlash8bit.c **** 	volatile uint32 reg1,reg2,reg3,reg4,reg5,reg6;
  55:.\WriteUserSFlash8bit.c **** 	
  56:.\WriteUserSFlash8bit.c **** 	/* Store the clock settings temporarily */
  57:.\WriteUserSFlash8bit.c ****     reg1 =	CY_GET_XTND_REG32((void CYFAR *)(CYREG_CLK_SELECT));
  46              		.loc 1 57 0
  47 0016 3A4B     		ldr	r3, .L5
  48 0018 1B68     		ldr	r3, [r3]
  49 001a 3B62     		str	r3, [r7, #32]
  58:.\WriteUserSFlash8bit.c ****     reg2 =  CY_GET_XTND_REG32((void CYFAR *)(CYREG_CLK_IMO_CONFIG));
  50              		.loc 1 58 0
  51 001c 394B     		ldr	r3, .L5+4
  52 001e 1B68     		ldr	r3, [r3]
  53 0020 FB61     		str	r3, [r7, #28]
  59:.\WriteUserSFlash8bit.c ****     reg3 =  CY_GET_XTND_REG32((void CYFAR *)(CYREG_PWR_BG_TRIM4));
  54              		.loc 1 59 0
  55 0022 394B     		ldr	r3, .L5+8
ARM GAS  C:\Users\Kevin\AppData\Local\Temp\ccOeHuCA.s 			page 3


  56 0024 1B68     		ldr	r3, [r3]
  57 0026 BB61     		str	r3, [r7, #24]
  60:.\WriteUserSFlash8bit.c ****     reg4 =  CY_GET_XTND_REG32((void CYFAR *)(CYREG_PWR_BG_TRIM5));
  58              		.loc 1 60 0
  59 0028 384B     		ldr	r3, .L5+12
  60 002a 1B68     		ldr	r3, [r3]
  61 002c 7B61     		str	r3, [r7, #20]
  61:.\WriteUserSFlash8bit.c ****     reg5 =  CY_GET_XTND_REG32((void CYFAR *)(CYREG_CLK_IMO_TRIM1));
  62              		.loc 1 61 0
  63 002e 384B     		ldr	r3, .L5+16
  64 0030 1B68     		ldr	r3, [r3]
  65 0032 3B61     		str	r3, [r7, #16]
  62:.\WriteUserSFlash8bit.c ****     reg6 =  CY_GET_XTND_REG32((void CYFAR *)(CYREG_CLK_IMO_TRIM2));
  66              		.loc 1 62 0
  67 0034 374B     		ldr	r3, .L5+20
  68 0036 1B68     		ldr	r3, [r3]
  69 0038 FB60     		str	r3, [r7, #12]
  63:.\WriteUserSFlash8bit.c **** 	
  64:.\WriteUserSFlash8bit.c **** 	/* Initialize the clock necessary for flash programming */
  65:.\WriteUserSFlash8bit.c **** 	CY_SET_REG32(CYREG_CPUSS_SYSARG, 0x0000e8b6);
  70              		.loc 1 65 0
  71 003a 374B     		ldr	r3, .L5+24
  72 003c 374A     		ldr	r2, .L5+28
  73 003e 1A60     		str	r2, [r3]
  66:.\WriteUserSFlash8bit.c **** 	CY_SET_REG32(CYREG_CPUSS_SYSREQ, 0x80000015);
  74              		.loc 1 66 0
  75 0040 374B     		ldr	r3, .L5+32
  76 0042 384A     		ldr	r2, .L5+36
  77 0044 1A60     		str	r2, [r3]
  67:.\WriteUserSFlash8bit.c **** 	
  68:.\WriteUserSFlash8bit.c **** 	/******* Initialize SRAM parameters for the LOAD FLASH command ******/
  69:.\WriteUserSFlash8bit.c **** 	/* byte 3 (i.e. 00) is the Macro_select */
  70:.\WriteUserSFlash8bit.c **** 	/* byte 2 (i.e. 00) is the Start addr of page latch */
  71:.\WriteUserSFlash8bit.c **** 	/* byte 1 (i.e. d7) is the key 2  */
  72:.\WriteUserSFlash8bit.c **** 	/* byte 0 (i.e. b6) is the key 1  */
  73:.\WriteUserSFlash8bit.c ****   	cmdDataBuffer[0]=0x0000d7b6;
  78              		.loc 1 73 0
  79 0046 2423     		mov	r3, #36
  80 0048 FB18     		add	r3, r7, r3
  81 004a B622     		mov	r2, #182
  82 004c 1A70     		strb	r2, [r3]
  74:.\WriteUserSFlash8bit.c **** 	
  75:.\WriteUserSFlash8bit.c **** 	/****** Initialize SRAM parameters for the LOAD FLASH command ******/
  76:.\WriteUserSFlash8bit.c **** 	/* byte 3,2 and 1 are null */
  77:.\WriteUserSFlash8bit.c **** 	/* byte 0 (i.e. 7F) is the number of bytes to be written */
  78:.\WriteUserSFlash8bit.c **** 	cmdDataBuffer[1]=0x0000007F;	 
  83              		.loc 1 78 0
  84 004e 2423     		mov	r3, #36
  85 0050 FB18     		add	r3, r7, r3
  86 0052 7F22     		mov	r2, #127
  87 0054 5A70     		strb	r2, [r3, #1]
  79:.\WriteUserSFlash8bit.c ****     
  80:.\WriteUserSFlash8bit.c **** 	/* Initialize the SRAM buffer with data bytes */
  81:.\WriteUserSFlash8bit.c ****     for(localCount = 0; localCount < (CY_FLASH_SIZEOF_ROW); localCount++)    
  88              		.loc 1 81 0
  89 0056 AF23     		mov	r3, #175
  90 0058 FB18     		add	r3, r7, r3
ARM GAS  C:\Users\Kevin\AppData\Local\Temp\ccOeHuCA.s 			page 4


  91 005a 0022     		mov	r2, #0
  92 005c 1A70     		strb	r2, [r3]
  93              	.LVL1:
  94 005e 13E0     		b	.L2
  95              	.LVL2:
  96              	.L3:
  82:.\WriteUserSFlash8bit.c **** 	{
  83:.\WriteUserSFlash8bit.c **** 		cmdDataBuffer[localCount + 2] = dataPointer[localCount]; 
  97              		.loc 1 83 0 discriminator 3
  98 0060 AF23     		mov	r3, #175
  99 0062 FB18     		add	r3, r7, r3
 100 0064 1B78     		ldrb	r3, [r3]
 101 0066 0233     		add	r3, r3, #2
 102 0068 AF22     		mov	r2, #175
 103 006a BA18     		add	r2, r7, r2
 104 006c 1278     		ldrb	r2, [r2]
 105 006e 3968     		ldr	r1, [r7]
 106 0070 8A18     		add	r2, r1, r2
 107 0072 1178     		ldrb	r1, [r2]
 108 0074 2422     		mov	r2, #36
 109 0076 BA18     		add	r2, r7, r2
 110 0078 D154     		strb	r1, [r2, r3]
  81:.\WriteUserSFlash8bit.c **** 	{
 111              		.loc 1 81 0 discriminator 3
 112 007a AF23     		mov	r3, #175
 113 007c FB18     		add	r3, r7, r3
 114 007e 1A78     		ldrb	r2, [r3]
 115 0080 AF23     		mov	r3, #175
 116 0082 FB18     		add	r3, r7, r3
 117 0084 0132     		add	r2, r2, #1
 118 0086 1A70     		strb	r2, [r3]
 119              	.LVL3:
 120              	.L2:
  81:.\WriteUserSFlash8bit.c **** 	{
 121              		.loc 1 81 0 is_stmt 0 discriminator 1
 122 0088 AF23     		mov	r3, #175
 123 008a FB18     		add	r3, r7, r3
 124 008c 1B78     		ldrb	r3, [r3]
 125 008e 5BB2     		sxtb	r3, r3
 126 0090 002B     		cmp	r3, #0
 127 0092 E5DA     		bge	.L3
  84:.\WriteUserSFlash8bit.c **** 	}
  85:.\WriteUserSFlash8bit.c **** 	
  86:.\WriteUserSFlash8bit.c **** 	/* Write the following to registers to execute a LOAD FLASH bytes */
  87:.\WriteUserSFlash8bit.c **** 	CY_SET_REG32(CYREG_CPUSS_SYSARG, &cmdDataBuffer[0]);
 128              		.loc 1 87 0 is_stmt 1
 129 0094 204B     		ldr	r3, .L5+24
 130 0096 2422     		mov	r2, #36
 131 0098 BA18     		add	r2, r7, r2
 132 009a 1A60     		str	r2, [r3]
  88:.\WriteUserSFlash8bit.c **** 	CY_SET_REG32(CYREG_CPUSS_SYSREQ, LOAD_FLASH);
 133              		.loc 1 88 0
 134 009c 204B     		ldr	r3, .L5+32
 135 009e 224A     		ldr	r2, .L5+40
 136 00a0 1A60     		str	r2, [r3]
  89:.\WriteUserSFlash8bit.c **** 	
  90:.\WriteUserSFlash8bit.c ****     /****** Initialize SRAM parameters for the WRITE ROW command ******/
ARM GAS  C:\Users\Kevin\AppData\Local\Temp\ccOeHuCA.s 			page 5


  91:.\WriteUserSFlash8bit.c **** 	/* byte 3 & 2 are null */
  92:.\WriteUserSFlash8bit.c **** 	/* byte 1 (i.e. 0xeb) is the key 2  */
  93:.\WriteUserSFlash8bit.c **** 	/* byte 0 (i.e. 0xb6) is the key 1  */
  94:.\WriteUserSFlash8bit.c **** 	cmdDataBuffer[0] = 0x0000ebb6;
 137              		.loc 1 94 0
 138 00a2 2423     		mov	r3, #36
 139 00a4 FB18     		add	r3, r7, r3
 140 00a6 B622     		mov	r2, #182
 141 00a8 1A70     		strb	r2, [r3]
  95:.\WriteUserSFlash8bit.c ****     
  96:.\WriteUserSFlash8bit.c **** 	/* byte 7,6 and 5 are null */
  97:.\WriteUserSFlash8bit.c **** 	/* byte 4 is desired SFlash user row 
  98:.\WriteUserSFlash8bit.c **** 	 * Allowed values 0 - row 4
  99:.\WriteUserSFlash8bit.c **** 	                  1 - row 5 
 100:.\WriteUserSFlash8bit.c **** 					  2 - row 6
 101:.\WriteUserSFlash8bit.c **** 					  3 - row 7 */
 102:.\WriteUserSFlash8bit.c **** 	cmdDataBuffer[1] = (uint32) userRowNUmber;
 142              		.loc 1 102 0
 143 00aa 2423     		mov	r3, #36
 144 00ac FB18     		add	r3, r7, r3
 145 00ae FA1D     		add	r2, r7, #7
 146 00b0 1278     		ldrb	r2, [r2]
 147 00b2 5A70     		strb	r2, [r3, #1]
 103:.\WriteUserSFlash8bit.c **** 	
 104:.\WriteUserSFlash8bit.c **** 	/* Write the following to registers to execute a WRITE USER SFlash ROW command */
 105:.\WriteUserSFlash8bit.c **** 	CY_SET_REG32(CYREG_CPUSS_SYSARG, &cmdDataBuffer[0]);
 148              		.loc 1 105 0
 149 00b4 184B     		ldr	r3, .L5+24
 150 00b6 2422     		mov	r2, #36
 151 00b8 BA18     		add	r2, r7, r2
 152 00ba 1A60     		str	r2, [r3]
 106:.\WriteUserSFlash8bit.c **** 	CY_SET_REG32(CYREG_CPUSS_SYSREQ, WRITE_USER_SFLASH_ROW);
 153              		.loc 1 106 0
 154 00bc 184B     		ldr	r3, .L5+32
 155 00be 1B4A     		ldr	r2, .L5+44
 156 00c0 1A60     		str	r2, [r3]
 107:.\WriteUserSFlash8bit.c ****     
 108:.\WriteUserSFlash8bit.c **** 	/* Read back SYSARG for the result. 0xA0000000 = SUCCESS; */
 109:.\WriteUserSFlash8bit.c **** 	retValue = CY_GET_REG32(CYREG_CPUSS_SYSARG);
 157              		.loc 1 109 0
 158 00c2 154B     		ldr	r3, .L5+24
 159 00c4 1B68     		ldr	r3, [r3]
 160 00c6 A822     		mov	r2, #168
 161 00c8 BA18     		add	r2, r7, r2
 162 00ca 1360     		str	r3, [r2]
 110:.\WriteUserSFlash8bit.c **** 	
 111:.\WriteUserSFlash8bit.c **** 	/* Restore the clock settings after the flash programming is done */
 112:.\WriteUserSFlash8bit.c ****     CY_SET_XTND_REG32((void CYFAR *)(CYREG_CLK_SELECT),reg1);
 163              		.loc 1 112 0
 164 00cc 0C4B     		ldr	r3, .L5
 165 00ce 3A6A     		ldr	r2, [r7, #32]
 166 00d0 1A60     		str	r2, [r3]
 113:.\WriteUserSFlash8bit.c ****     CY_SET_XTND_REG32((void CYFAR *)(CYREG_CLK_IMO_CONFIG),reg2);
 167              		.loc 1 113 0
 168 00d2 0C4B     		ldr	r3, .L5+4
 169 00d4 FA69     		ldr	r2, [r7, #28]
 170 00d6 1A60     		str	r2, [r3]
ARM GAS  C:\Users\Kevin\AppData\Local\Temp\ccOeHuCA.s 			page 6


 114:.\WriteUserSFlash8bit.c ****     CY_SET_XTND_REG32((void CYFAR *)(CYREG_PWR_BG_TRIM4),reg3);
 171              		.loc 1 114 0
 172 00d8 0B4B     		ldr	r3, .L5+8
 173 00da BA69     		ldr	r2, [r7, #24]
 174 00dc 1A60     		str	r2, [r3]
 115:.\WriteUserSFlash8bit.c ****     CY_SET_XTND_REG32((void CYFAR *)(CYREG_PWR_BG_TRIM5),reg4);
 175              		.loc 1 115 0
 176 00de 0B4B     		ldr	r3, .L5+12
 177 00e0 7A69     		ldr	r2, [r7, #20]
 178 00e2 1A60     		str	r2, [r3]
 116:.\WriteUserSFlash8bit.c ****     CY_SET_XTND_REG32((void CYFAR *)(CYREG_CLK_IMO_TRIM1),reg5);
 179              		.loc 1 116 0
 180 00e4 0A4B     		ldr	r3, .L5+16
 181 00e6 3A69     		ldr	r2, [r7, #16]
 182 00e8 1A60     		str	r2, [r3]
 117:.\WriteUserSFlash8bit.c ****     CY_SET_XTND_REG32((void CYFAR *)(CYREG_CLK_IMO_TRIM2),reg6);  
 183              		.loc 1 117 0
 184 00ea 0A4B     		ldr	r3, .L5+20
 185 00ec FA68     		ldr	r2, [r7, #12]
 186 00ee 1A60     		str	r2, [r3]
 118:.\WriteUserSFlash8bit.c **** 	
 119:.\WriteUserSFlash8bit.c **** 	return retValue;
 187              		.loc 1 119 0
 188 00f0 A823     		mov	r3, #168
 189 00f2 FB18     		add	r3, r7, r3
 190 00f4 1B68     		ldr	r3, [r3]
 120:.\WriteUserSFlash8bit.c **** }
 191              		.loc 1 120 0
 192 00f6 181C     		mov	r0, r3
 193              	.LVL4:
 194 00f8 BD46     		mov	sp, r7
 195              	.LVL5:
 196 00fa 2CB0     		add	sp, sp, #176
 197              	.LVL6:
 198              		@ sp needed
 199              	.LVL7:
 200 00fc 80BD     		pop	{r7, pc}
 201              	.L6:
 202 00fe C046     		.align	2
 203              	.L5:
 204 0100 00010B40 		.word	1074462976
 205 0104 08010B40 		.word	1074462984
 206 0108 1CFF0B40 		.word	1074528028
 207 010c 20FF0B40 		.word	1074528032
 208 0110 28FF0B40 		.word	1074528040
 209 0114 2CFF0B40 		.word	1074528044
 210 0118 08001040 		.word	1074790408
 211 011c B6E80000 		.word	59574
 212 0120 04001040 		.word	1074790404
 213 0124 15000080 		.word	-2147483627
 214 0128 04000080 		.word	-2147483644
 215 012c 18000080 		.word	-2147483624
 216              		.cfi_endproc
 217              	.LFE35:
 218              		.size	WriteUserSFlashRow8bit, .-WriteUserSFlashRow8bit
 219              		.text
 220              	.Letext0:
ARM GAS  C:\Users\Kevin\AppData\Local\Temp\ccOeHuCA.s 			page 7


 221              		.file 2 "Generated_Source\\PSoC4/cytypes.h"